

Microchip MPLAB XC8 Assembler V2.32 build 20210201212658 
                                                                                               Thu Dec 02 19:29:12 2021

Microchip MPLAB XC8 C Compiler v2.32 (Free license) build 20210201212658 Og1 
     1                           	processor	18F26K83
     2                           	fnconf	rparam,??,?,0
     3                           	pagewidth 120
     4                           	opt	flic
     5                           	psect	idataBIGRAM,global,class=CODE,delta=1,noexec
     6                           	psect	idataBANK0,global,class=CODE,delta=1,noexec
     7                           	psect	smallconst,global,reloc=2,class=SMALLCONST,delta=1,noexec
     8                           	psect	nvBANK0,global,class=BANK0,space=1,delta=1,lowdata,noexec
     9                           	psect	cinit,global,reloc=2,class=CODE,delta=1
    10                           	psect	bssCOMRAM,global,class=COMRAM,space=1,delta=1,lowdata,noexec
    11                           	psect	bssBANK0,global,class=BANK0,space=1,delta=1,lowdata,noexec
    12                           	psect	dataBANK0,global,class=BANK0,space=1,delta=1,lowdata,noexec
    13                           	psect	dataBIGRAM,global,class=BIGRAM,space=1,delta=1,noexec
    14                           	psect	cstackCOMRAM,global,class=COMRAM,space=1,delta=1,lowdata,noexec
    15                           	psect	text0,global,reloc=2,class=CODE,delta=1
    16                           	psect	text1,global,reloc=2,class=CODE,delta=1
    17                           	psect	text2,global,reloc=2,class=CODE,delta=1,group=2
    18                           	psect	text3,global,reloc=2,class=CODE,delta=1
    19                           	psect	text4,global,reloc=2,class=CODE,delta=1
    20                           	psect	text5,global,reloc=2,class=CODE,delta=1
    21                           	psect	text6,global,reloc=2,class=CODE,delta=1
    22                           	psect	text7,global,reloc=2,class=CODE,delta=1
    23                           	psect	text8,global,reloc=2,class=CODE,delta=1
    24                           	psect	text9,global,reloc=2,class=CODE,delta=1
    25                           	psect	text10,global,reloc=2,class=CODE,delta=1
    26                           	psect	text11,global,reloc=2,class=CODE,delta=1,group=1
    27                           	psect	text12,global,reloc=2,class=CODE,delta=1,group=1
    28                           	psect	text13,global,reloc=2,class=CODE,delta=1,group=1
    29                           	psect	text14,global,reloc=2,class=CODE,delta=1,group=1
    30                           	psect	text15,global,reloc=2,class=CODE,delta=1,group=1
    31                           	psect	text16,global,reloc=2,class=CODE,delta=1
    32                           	psect	text17,global,reloc=2,class=CODE,delta=1
    33                           	psect	text18,global,reloc=2,class=CODE,delta=1
    34                           	psect	text19,global,reloc=2,class=CODE,delta=1
    35                           	psect	text20,global,reloc=2,class=CODE,delta=1
    36                           	psect	text21,global,reloc=2,class=CODE,delta=1
    37                           	psect	text22,global,reloc=2,class=CODE,delta=1
    38                           	psect	text23,global,reloc=2,class=CODE,delta=1
    39                           	psect	text24,global,reloc=2,class=CODE,delta=1
    40                           	psect	text25,global,reloc=2,class=CODE,delta=1
    41                           	psect	intsave_regs,global,class=BIGRAM,space=1,delta=1,noexec
    42                           	psect	rparam,global,class=COMRAM,space=1,delta=1,noexec
    43                           	psect	idloc,global,abs,ovrld,class=IDLOC,space=5,delta=1,noexec
    44                           	psect	config,global,abs,ovrld,class=CONFIG,space=4,delta=1,noexec
    45  0000                     
    46                           ; Version 2.20
    47                           ; Generated 05/05/2020 GMT
    48                           ; 
    49                           ; Copyright © 2020, Microchip Technology Inc. and its subsidiaries ("Microchip")
    50                           ; All rights reserved.
    51                           ; 
    52                           ; This software is developed by Microchip Technology Inc. and its subsidiaries ("Microch
      +                          ip").
    53                           ; 
    54                           ; Redistribution and use in source and binary forms, with or without modification, are
    55                           ; permitted provided that the following conditions are met:
    56                           ; 
    57                           ;     1. Redistributions of source code must retain the above copyright notice, this lis
      +                          t of
    58                           ;        conditions and the following disclaimer.
    59                           ; 
    60                           ;     2. Redistributions in binary form must reproduce the above copyright notice, this 
      +                          list
    61                           ;        of conditions and the following disclaimer in the documentation and/or other
    62                           ;        materials provided with the distribution.
    63                           ; 
    64                           ;     3. Microchip's name may not be used to endorse or promote products derived from th
      +                          is
    65                           ;        software without specific prior written permission.
    66                           ; 
    67                           ; THIS SOFTWARE IS PROVIDED BY MICROCHIP "AS IS" AND ANY EXPRESS OR IMPLIED WARRANTIES,
    68                           ; INCLUDING, BUT NOT LIMITED TO, THE IMPLIED WARRANTIES OF MERCHANTABILITY AND FITNESS F
      +                          OR
    69                           ; PURPOSE ARE DISCLAIMED.  IN NO EVENT SHALL MICROCHIP BE LIABLE FOR ANY DIRECT, INDIREC
      +                          T,
    70                           ; INCIDENTAL, SPECIAL, EXEMPLARY, OR CONSEQUENTIAL DAMAGES (INCLUDING BUT NOT LIMITED TO
    71                           ; PROCUREMENT OF SUBSTITUTE GOODS OR SERVICES; LOSS OF USE, DATA OR PROFITS; OR BUSINESS
    72                           ; INTERRUPTION) HOWSOEVER CAUSED AND ON ANY THEORY OF LIABILITY, WHETHER IN CONTRACT, ST
      +                          RICT
    73                           ; LIABILITY, OR TORT (INCLUDING NEGLIGENCE OR OTHERWISE) ARISING IN ANY WAY OUT OF THE U
      +                          SE OF
    74                           ; THIS SOFTWARE, EVEN IF ADVISED OF THE POSSIBILITY OF SUCH DAMAGE.
    75                           ; 
    76                           ; 
    77                           ; Code-generator required, PIC18F26K83 Definitions
    78                           ; 
    79                           ; SFR Addresses
    80  0000                     
    81 ;; Function _UART1_DefaultFramingErrorHandler is unused but had its address taken
    82  0000                     
    83 ;; Function _UART1_DefaultOverrunErrorHandler is unused but had its address taken
    84  0000                     
    85 ;; Function _UART1_DefaultErrorHandler is unused but had its address taken
    86  0000                     
    87                           	psect	idataBIGRAM
    88  001CD8                     __pidataBIGRAM:
    89                           	callstack 0
    90                           
    91                           ;initializer for _SOC_LUT
    92  001CD8  0000               	dw	0
    93  001CDA  0005               	dw	5
    94  001CDC  000D               	dw	13
    95  001CDE  0016               	dw	22
    96  001CE0  001F               	dw	31
    97  001CE2  0027               	dw	39
    98  001CE4  0030               	dw	48
    99  001CE6  0039               	dw	57
   100  001CE8  0043               	dw	67
   101  001CEA  004C               	dw	76
   102  001CEC  0056               	dw	86
   103  001CEE  005A               	dw	90
   104  001CF0  006A               	dw	106
   105  001CF2  0075               	dw	117
   106  001CF4  007F               	dw	127
   107  001CF6  008A               	dw	138
   108  001CF8  0096               	dw	150
   109  001CFA  00A2               	dw	162
   110  001CFC  00AE               	dw	174
   111  001CFE  00BA               	dw	186
   112  001D00  00C7               	dw	199
   113  001D02  00D4               	dw	212
   114  001D04  00E2               	dw	226
   115  001D06  00F1               	dw	241
   116  001D08  0100               	dw	256
   117  001D0A  010F               	dw	271
   118  001D0C  0120               	dw	288
   119  001D0E  00CD               	dw	205
   120  001D10  0144               	dw	324
   121  001D12  0159               	dw	345
   122  001D14  016C               	dw	364
   123  001D16  0182               	dw	386
   124  001D18  019A               	dw	410
   125  001D1A  01B4               	dw	436
   126  001D1C  01D1               	dw	465
   127  001D1E  01F1               	dw	497
   128  001D20  0216               	dw	534
   129  001D22  0241               	dw	577
   130  001D24  0275               	dw	629
   131  001D26  02B7               	dw	695
   132  001D28  030C               	dw	780
   133  001D2A  0371               	dw	881
   134  001D2C  03CC               	dw	972
   135  001D2E  0414               	dw	1044
   136  001D30  044F               	dw	1103
   137  001D32  0485               	dw	1157
   138  001D34  04B6               	dw	1206
   139  001D36  04E5               	dw	1253
   140  001D38  0513               	dw	1299
   141  001D3A  0540               	dw	1344
   142  001D3C  056D               	dw	1389
   143  001D3E  059A               	dw	1434
   144  001D40  05C7               	dw	1479
   145  001D42  05F7               	dw	1527
   146  001D44  0628               	dw	1576
   147  001D46  065C               	dw	1628
   148  001D48  0692               	dw	1682
   149  001D4A  06CA               	dw	1738
   150  001D4C  0706               	dw	1798
   151  001D4E  0743               	dw	1859
   152  001D50  0784               	dw	1924
   153  001D52  07C8               	dw	1992
   154  001D54  080E               	dw	2062
   155  001D56  0856               	dw	2134
   156  001D58  08A0               	dw	2208
   157  001D5A  08E9               	dw	2281
   158  001D5C  0978               	dw	2424
   159  001D5E  09BC               	dw	2492
   160  001D60  09FD               	dw	2557
   161  001D62  0A3C               	dw	2620
   162  001D64  0A79               	dw	2681
   163  001D66  0AB7               	dw	2743
   164  001D68  0AF4               	dw	2804
   165  001D6A  0B34               	dw	2868
   166  001D6C  0B57               	dw	2903
   167  001D6E  0BBB               	dw	3003
   168  001D70  0C06               	dw	3078
   169  001D72  0C59               	dw	3161
   170  001D74  0CB5               	dw	3253
   171  001D76  0D1A               	dw	3354
   172  001D78  0D8B               	dw	3467
   173  001D7A  0E05               	dw	3589
   174  001D7C  0E88               	dw	3720
   175  001D7E  0F0B               	dw	3851
   176  001D80  0F88               	dw	3976
   177  001D82  0FFC               	dw	4092
   178  001D84  1068               	dw	4200
   179  001D86  10CF               	dw	4303
   180  001D88  1134               	dw	4404
   181  001D8A  1198               	dw	4504
   182  001D8C  11FB               	dw	4603
   183  001D8E  125C               	dw	4700
   184  001D90  12B8               	dw	4792
   185  001D92  130E               	dw	4878
   186  001D94  135E               	dw	4958
   187  001D96  13A8               	dw	5032
   188  001D98  13ED               	dw	5101
   189  001D9A  142E               	dw	5166
   190  001D9C  146C               	dw	5228
   191  001D9E  14A9               	dw	5289
   192  001DA0  14E3               	dw	5347
   193  001DA2  151D               	dw	5405
   194  001DA4  1556               	dw	5462
   195  001DA6  158E               	dw	5518
   196  001DA8  15C5               	dw	5573
   197  001DAA  15FC               	dw	5628
   198  001DAC  1630               	dw	5680
   199  001DAE  1663               	dw	5731
   200  001DB0  1694               	dw	5780
   201  001DB2  16C2               	dw	5826
   202  001DB4  16ED               	dw	5869
   203  001DB6  1717               	dw	5911
   204  001DB8  173F               	dw	5951
   205  001DBA  1764               	dw	5988
   206  001DBC  1788               	dw	6024
   207  001DBE  17AB               	dw	6059
   208  001DC0  17CC               	dw	6092
   209  001DC2  17EC               	dw	6124
   210  001DC4  180C               	dw	6156
   211  001DC6  182B               	dw	6187
   212  001DC8  1849               	dw	6217
   213  001DCA  1867               	dw	6247
   214  001DCC  1886               	dw	6278
   215  001DCE  18A4               	dw	6308
   216  001DD0  18C1               	dw	6337
   217  001DD2  18E0               	dw	6368
   218  001DD4  18FE               	dw	6398
   219  001DD6  191C               	dw	6428
   220  001DD8  193B               	dw	6459
   221  001DDA  195B               	dw	6491
   222  001DDC  197B               	dw	6523
   223  001DDE  199C               	dw	6556
   224  001DE0  19BE               	dw	6590
   225  001DE2  19E1               	dw	6625
   226  001DE4  1A04               	dw	6660
   227  001DE6  1A28               	dw	6696
   228  001DE8  1A4D               	dw	6733
   229  001DEA  1A72               	dw	6770
   230  001DEC  1A98               	dw	6808
   231  001DEE  1ABE               	dw	6846
   232  001DF0  1AE4               	dw	6884
   233  001DF2  1B0B               	dw	6923
   234  001DF4  1B31               	dw	6961
   235  001DF6  1B58               	dw	7000
   236  001DF8  1B7F               	dw	7039
   237  001DFA  1BA5               	dw	7077
   238  001DFC  1BCB               	dw	7115
   239  001DFE  1BF1               	dw	7153
   240  001E00  1C17               	dw	7191
   241  001E02  1C3C               	dw	7228
   242  001E04  1C62               	dw	7266
   243  001E06  1C87               	dw	7303
   244  001E08  1CAC               	dw	7340
   245  001E0A  1CD0               	dw	7376
   246  001E0C  1CF5               	dw	7413
   247  001E0E  1D19               	dw	7449
   248  001E10  1D3C               	dw	7484
   249  001E12  1D60               	dw	7520
   250  001E14  1D83               	dw	7555
   251  001E16  1DA6               	dw	7590
   252  001E18  1DC9               	dw	7625
   253  001E1A  1DEB               	dw	7659
   254  001E1C  1E0E               	dw	7694
   255  001E1E  1E30               	dw	7728
   256  001E20  1E52               	dw	7762
   257  001E22  1E74               	dw	7796
   258  001E24  1E96               	dw	7830
   259  001E26  1EB8               	dw	7864
   260  001E28  1EDA               	dw	7898
   261  001E2A  1EFC               	dw	7932
   262  001E2C  1F1E               	dw	7966
   263  001E2E  1F40               	dw	8000
   264  001E30  1F62               	dw	8034
   265  001E32  1F84               	dw	8068
   266  001E34  1FA6               	dw	8102
   267  001E36  1FC8               	dw	8136
   268  001E38  1FEA               	dw	8170
   269  001E3A  200C               	dw	8204
   270  001E3C  202E               	dw	8238
   271  001E3E  2050               	dw	8272
   272  001E40  2072               	dw	8306
   273  001E42  2094               	dw	8340
   274  001E44  20B5               	dw	8373
   275  001E46  20D6               	dw	8406
   276  001E48  20F8               	dw	8440
   277  001E4A  2118               	dw	8472
   278  001E4C  2139               	dw	8505
   279  001E4E  215A               	dw	8538
   280  001E50  217A               	dw	8570
   281  001E52  219A               	dw	8602
   282  001E54  21B8               	dw	8632
   283  001E56  21DA               	dw	8666
   284  001E58  21F9               	dw	8697
   285  001E5A  2219               	dw	8729
   286  001E5C  2238               	dw	8760
   287  001E5E  2257               	dw	8791
   288  001E60  2276               	dw	8822
   289  001E62  2295               	dw	8853
   290  001E64  22B4               	dw	8884
   291  001E66  22D3               	dw	8915
   292  001E68  22F1               	dw	8945
   293  001E6A  2310               	dw	8976
   294  001E6C  232E               	dw	9006
   295  001E6E  234C               	dw	9036
   296  001E70  236B               	dw	9067
   297  001E72  2389               	dw	9097
   298  001E74  23A7               	dw	9127
   299  001E76  23C5               	dw	9157
   300  001E78  23E2               	dw	9186
   301  001E7A  2400               	dw	9216
   302  001E7C  241D               	dw	9245
   303  001E7E  243B               	dw	9275
   304  001E80  2458               	dw	9304
   305  001E82  2475               	dw	9333
   306  001E84  2492               	dw	9362
   307  001E86  24AE               	dw	9390
   308  001E88  24CB               	dw	9419
   309  001E8A  24E7               	dw	9447
   310  001E8C  2503               	dw	9475
   311  001E8E  251F               	dw	9503
   312  001E90  253B               	dw	9531
   313  001E92  2557               	dw	9559
   314  001E94  2572               	dw	9586
   315  001E96  258D               	dw	9613
   316  001E98  25A8               	dw	9640
   317  001E9A  25AF               	dw	9647
   318  001E9C  25DD               	dw	9693
   319  001E9E  25F8               	dw	9720
   320  001EA0  2612               	dw	9746
   321  001EA2  262C               	dw	9772
   322  001EA4  2645               	dw	9797
   323  001EA6  265F               	dw	9823
   324  001EA8  2678               	dw	9848
   325  001EAA  2691               	dw	9873
   326  001EAC  26AA               	dw	9898
   327  001EAE  26C3               	dw	9923
   328  001EB0  26DB               	dw	9947
   329  001EB2  26F3               	dw	9971
   330  001EB4  270B               	dw	9995
   331  001EB6  86A0               	dw	34464
   332                           
   333                           	psect	idataBANK0
   334  00254A                     __pidataBANK0:
   335                           	callstack 0
   336                           
   337                           ;initializer for _THROTTLE_MULTIPLIER
   338  00254A  0000               	dw	0
   339  00254C  3F80               	dw	16256
   340                           
   341                           ;initializer for _previous_state
   342  00254E  FFFF               	dw	65535
   343                           
   344                           	psect	smallconst
   345  001000                     __psmallconst:
   346                           	callstack 0
   347  001000  00                 	db	0
   348  001001                     _THROTTLE_MAP:
   349                           	callstack 0
   350  001001  0000               	dw	0
   351  001003  42BE               	dw	17086
   352  001005  0000               	dw	0
   353  001007  428E               	dw	17038
   354  001009  0000               	dw	0
   355  00100B  426C               	dw	17004
   356  00100D  0000               	dw	0
   357  00100F  423C               	dw	16956
   358  001011  0000               	dw	0
   359  001013  420C               	dw	16908
   360  001015  0000               	dw	0
   361  001017  41B8               	dw	16824
   362  001019  0000               	dw	0
   363  00101B  4130               	dw	16688
   364  00101D  0000               	dw	0
   365  00101F  40A0               	dw	16544
   366  001021                     __end_of_THROTTLE_MAP:
   367                           	callstack 0
   368  001021                     STR_25:
   369  001021  65                 	db	101	;'e'
   370  001022  72                 	db	114	;'r'
   371  001023  72                 	db	114	;'r'
   372  001024  6F                 	db	111	;'o'
   373  001025  72                 	db	114	;'r'
   374  001026  20                 	db	32
   375  001027  73                 	db	115	;'s'
   376  001028  74                 	db	116	;'t'
   377  001029  61                 	db	97	;'a'
   378  00102A  74                 	db	116	;'t'
   379  00102B  65                 	db	101	;'e'
   380  00102C  3A                 	db	58	;':'
   381  00102D  20                 	db	32
   382  00102E  66                 	db	102	;'f'
   383  00102F  72                 	db	114	;'r'
   384  001030  6F                 	db	111	;'o'
   385  001031  6D                 	db	109	;'m'
   386  001032  42                 	db	66	;'B'
   387  001033  4D                 	db	77	;'M'
   388  001034  53                 	db	83	;'S'
   389  001035  00                 	db	0
   390  001036                     STR_8:
   391  001036  44                 	db	68	;'D'
   392  001037  69                 	db	105	;'i'
   393  001038  73                 	db	115	;'s'
   394  001039  70                 	db	112	;'p'
   395  00103A  6C                 	db	108	;'l'
   396  00103B  61                 	db	97	;'a'
   397  00103C  79                 	db	121	;'y'
   398  00103D  69                 	db	105	;'i'
   399  00103E  6E                 	db	110	;'n'
   400  00103F  67                 	db	103	;'g'
   401  001040  20                 	db	32
   402  001041  64                 	db	100	;'d'
   403  001042  61                 	db	97	;'a'
   404  001043  74                 	db	116	;'t'
   405  001044  61                 	db	97	;'a'
   406  001045  00                 	db	0
   407  001046                     STR_12:
   408  001046  4C                 	db	76	;'L'
   409  001047  45                 	db	69	;'E'
   410  001048  44                 	db	68	;'D'
   411  001049  3A                 	db	58	;':'
   412  00104A  20                 	db	32
   413  00104B  4D                 	db	77	;'M'
   414  00104C  41                 	db	65	;'A'
   415  00104D  47                 	db	71	;'G'
   416  00104E  45                 	db	69	;'E'
   417  00104F  4E                 	db	78	;'N'
   418  001050  54                 	db	84	;'T'
   419  001051  41                 	db	65	;'A'
   420  001052  00                 	db	0
   421  001053                     STR_4:
   422  001053  4C                 	db	76	;'L'
   423  001054  45                 	db	69	;'E'
   424  001055  44                 	db	68	;'D'
   425  001056  3A                 	db	58	;':'
   426  001057  20                 	db	32
   427  001058  52                 	db	82	;'R'
   428  001059  41                 	db	65	;'A'
   429  00105A  49                 	db	73	;'I'
   430  00105B  4E                 	db	78	;'N'
   431  00105C  42                 	db	66	;'B'
   432  00105D  4F                 	db	79	;'O'
   433  00105E  57                 	db	87	;'W'
   434  00105F  00                 	db	0
   435  001060                     STR_20:
   436  001060  44                 	db	68	;'D'
   437  001061  69                 	db	105	;'i'
   438  001062  73                 	db	115	;'s'
   439  001063  70                 	db	112	;'p'
   440  001064  6C                 	db	108	;'l'
   441  001065  61                 	db	97	;'a'
   442  001066  79                 	db	121	;'y'
   443  001067  20                 	db	32
   444  001068  64                 	db	100	;'d'
   445  001069  61                 	db	97	;'a'
   446  00106A  74                 	db	116	;'t'
   447  00106B  61                 	db	97	;'a'
   448  00106C  00                 	db	0
   449  00106D                     STR_10:
   450  00106D  4C                 	db	76	;'L'
   451  00106E  45                 	db	69	;'E'
   452  00106F  44                 	db	68	;'D'
   453  001070  3A                 	db	58	;':'
   454  001071  20                 	db	32
   455  001072  59                 	db	89	;'Y'
   456  001073  45                 	db	69	;'E'
   457  001074  4C                 	db	76	;'L'
   458  001075  4C                 	db	76	;'L'
   459  001076  4F                 	db	79	;'O'
   460  001077  57                 	db	87	;'W'
   461  001078  00                 	db	0
   462  001079                     STR_5:
   463  001079  42                 	db	66	;'B'
   464  00107A  75                 	db	117	;'u'
   465  00107B  7A                 	db	122	;'z'
   466  00107C  7A                 	db	122	;'z'
   467  00107D  65                 	db	101	;'e'
   468  00107E  72                 	db	114	;'r'
   469  00107F  3A                 	db	58	;':'
   470  001080  20                 	db	32
   471  001081  6F                 	db	111	;'o'
   472  001082  66                 	db	102	;'f'
   473  001083  66                 	db	102	;'f'
   474  001084  00                 	db	0
   475  001085                     STR_21:
   476  001085  4C                 	db	76	;'L'
   477  001086  45                 	db	69	;'E'
   478  001087  44                 	db	68	;'D'
   479  001088  3A                 	db	58	;':'
   480  001089  20                 	db	32
   481  00108A  47                 	db	71	;'G'
   482  00108B  52                 	db	82	;'R'
   483  00108C  45                 	db	69	;'E'
   484  00108D  45                 	db	69	;'E'
   485  00108E  4E                 	db	78	;'N'
   486  00108F  00                 	db	0
   487  001090                     STR_6:
   488  001090  42                 	db	66	;'B'
   489  001091  75                 	db	117	;'u'
   490  001092  7A                 	db	122	;'z'
   491  001093  7A                 	db	122	;'z'
   492  001094  65                 	db	101	;'e'
   493  001095  72                 	db	114	;'r'
   494  001096  3A                 	db	58	;':'
   495  001097  20                 	db	32
   496  001098  6F                 	db	111	;'o'
   497  001099  6E                 	db	110	;'n'
   498  00109A  00                 	db	0
   499  00109B                     STR_15:
   500  00109B  4C                 	db	76	;'L'
   501  00109C  45                 	db	69	;'E'
   502  00109D  44                 	db	68	;'D'
   503  00109E  3A                 	db	58	;':'
   504  00109F  20                 	db	32
   505  0010A0  42                 	db	66	;'B'
   506  0010A1  4C                 	db	76	;'L'
   507  0010A2  55                 	db	85	;'U'
   508  0010A3  45                 	db	69	;'E'
   509  0010A4  00                 	db	0
   510  0010A5                     STR_22:
   511  0010A5  4C                 	db	76	;'L'
   512  0010A6  45                 	db	69	;'E'
   513  0010A7  44                 	db	68	;'D'
   514  0010A8  3A                 	db	58	;':'
   515  0010A9  20                 	db	32
   516  0010AA  52                 	db	82	;'R'
   517  0010AB  45                 	db	69	;'E'
   518  0010AC  44                 	db	68	;'D'
   519  0010AD  00                 	db	0
   520  0010AE                     STR_23:
   521  0010AE  4C                 	db	76	;'L'
   522  0010AF  45                 	db	69	;'E'
   523  0010B0  44                 	db	68	;'D'
   524  0010B1  3A                 	db	58	;':'
   525  0010B2  20                 	db	32
   526  0010B3  4F                 	db	79	;'O'
   527  0010B4  46                 	db	70	;'F'
   528  0010B5  46                 	db	70	;'F'
   529  0010B6  00                 	db	0
   530  0010B7                     STR_11:
   531  0010B7  50                 	db	80	;'P'
   532  0010B8  52                 	db	82	;'R'
   533  0010B9  43                 	db	67	;'C'
   534  0010BA  48                 	db	72	;'H'
   535  0010BB  47                 	db	71	;'G'
   536  0010BC  45                 	db	69	;'E'
   537  0010BD  00                 	db	0
   538  0010BE                     STR_19:
   539  0010BE  44                 	db	68	;'D'
   540  0010BF  52                 	db	82	;'R'
   541  0010C0  49                 	db	73	;'I'
   542  0010C1  56                 	db	86	;'V'
   543  0010C2  45                 	db	69	;'E'
   544  0010C3  00                 	db	0
   545  0010C4                     STR_3:
   546  0010C4  53                 	db	83	;'S'
   547  0010C5  54                 	db	84	;'T'
   548  0010C6  41                 	db	65	;'A'
   549  0010C7  52                 	db	82	;'R'
   550  0010C8  54                 	db	84	;'T'
   551  0010C9  00                 	db	0
   552  0010CA                     STR_2:
   553  0010CA  53                 	db	83	;'S'
   554  0010CB  54                 	db	84	;'T'
   555  0010CC  61                 	db	97	;'a'
   556  0010CD  72                 	db	114	;'r'
   557  0010CE  74                 	db	116	;'t'
   558  0010CF  00                 	db	0
   559  0010D0                     STR_1:
   560  0010D0  20                 	db	32
   561  0010D1  20                 	db	32
   562  0010D2  20                 	db	32
   563  0010D3  20                 	db	32
   564  0010D4  00                 	db	0
   565  0010D5                     STR_13:
   566  0010D5  48                 	db	72	;'H'
   567  0010D6  56                 	db	86	;'V'
   568  0010D7  00                 	db	0
   569  0010D8                     STR_7:
   570  0010D8  4C                 	db	76	;'L'
   571  0010D9  56                 	db	86	;'V'
   572  0010DA  00                 	db	0
   573  0010DB  00                 	db	0	; dummy byte at the end
   574  0000                     
   575                           	psect	nvBANK0
   576  000070                     __pnvBANK0:
   577                           	callstack 0
   578  000070                     _UART1_ErrorHandler:
   579                           	callstack 0
   580  000070                     	ds	2
   581  000072                     _UART1_OverrunErrorHandler:
   582                           	callstack 0
   583  000072                     	ds	2
   584  000074                     _UART1_FramingErrorHandler:
   585                           	callstack 0
   586  000074                     	ds	2
   587  0000                     _PIR3bits	set	14755
   588  0000                     _PMD7	set	14791
   589  0000                     _PMD6	set	14790
   590  0000                     _PMD5	set	14789
   591  0000                     _PMD4	set	14788
   592  0000                     _PMD3	set	14787
   593  0000                     _PMD2	set	14786
   594  0000                     _PMD1	set	14785
   595  0000                     _PMD0	set	14784
   596  0000                     _OSCTUNE	set	14814
   597  0000                     _OSCFRQ	set	14815
   598  0000                     _OSCEN	set	14813
   599  0000                     _OSCCON3	set	14811
   600  0000                     _OSCCON1	set	14809
   601  0000                     _U1RXPPS	set	15079
   602  0000                     _RC6PPS	set	14870
   603  0000                     _INLVLE	set	14980
   604  0000                     _INLVLC	set	14948
   605  0000                     _INLVLB	set	14932
   606  0000                     _INLVLA	set	14916
   607  0000                     _SLRCONC	set	14947
   608  0000                     _SLRCONB	set	14931
   609  0000                     _SLRCONA	set	14915
   610  0000                     _ODCONC	set	14946
   611  0000                     _ODCONB	set	14930
   612  0000                     _ODCONA	set	14914
   613  0000                     _WPUC	set	14945
   614  0000                     _WPUA	set	14913
   615  0000                     _WPUB	set	14929
   616  0000                     _WPUE	set	14977
   617  0000                     _ANSELA	set	14912
   618  0000                     _ANSELB	set	14928
   619  0000                     _ANSELC	set	14944
   620  0000                     _U1TXB	set	15850
   621  0000                     _U1RXB	set	15848
   622  0000                     _U1ERRIRbits	set	15865
   623  0000                     _U1CON0bits	set	15858
   624  0000                     _U1ERRIE	set	15866
   625  0000                     _U1ERRIR	set	15865
   626  0000                     _U1UIR	set	15864
   627  0000                     _U1FIFO	set	15863
   628  0000                     _U1BRGH	set	15862
   629  0000                     _U1BRGL	set	15861
   630  0000                     _U1CON2	set	15860
   631  0000                     _U1CON1	set	15859
   632  0000                     _U1CON0	set	15858
   633  0000                     _U1P3H	set	15857
   634  0000                     _U1P3L	set	15856
   635  0000                     _U1P2H	set	15855
   636  0000                     _U1P2L	set	15854
   637  0000                     _U1P1H	set	15853
   638  0000                     _U1P1L	set	15852
   639  0000                     _PORTBbits	set	16331
   640  0000                     _TRISC	set	16324
   641  0000                     _TRISB	set	16323
   642  0000                     _TRISA	set	16322
   643  0000                     _LATC	set	16316
   644  0000                     _LATB	set	16315
   645  0000                     _LATA	set	16314
   646                           
   647                           ; #config settings
   648                           
   649                           	psect	cinit
   650  002342                     __pcinit:
   651                           	callstack 0
   652  002342                     start_initialization:
   653                           	callstack 0
   654  002342                     __initialization:
   655                           	callstack 0
   656                           
   657                           ; Initialize objects allocated to BIGRAM (480 bytes)
   658                           ; load TBLPTR registers with __pidataBIGRAM
   659  002342  0ED8               	movlw	low __pidataBIGRAM
   660  002344  6EF6               	movwf	tblptrl,c
   661  002346  0E1C               	movlw	high __pidataBIGRAM
   662  002348  6EF7               	movwf	tblptrh,c
   663  00234A  0E00               	movlw	low (__pidataBIGRAM shr (0+16))
   664  00234C  6EF8               	movwf	tblptru,c
   665  00234E  EE03  F220         	lfsr	0,__pdataBIGRAM
   666  002352  EE10 F1E0          	lfsr	1,480
   667  002356                     copy_data0:
   668  002356  0009               	tblrd		*+
   669  002358  006F FFD7 FFEE     	movff	tablat,postinc0
   670  00235E  50E5               	movf	postdec1,w,c
   671  002360  50E1               	movf	fsr1l,w,c
   672  002362  E1F9               	bnz	copy_data0
   673  002364  50E2               	movf	fsr1h,w,c
   674  002366  E1F7               	bnz	copy_data0
   675                           
   676                           ; Initialize objects allocated to BANK0 (6 bytes)
   677                           ; load TBLPTR registers with __pidataBANK0
   678  002368  0E4A               	movlw	low __pidataBANK0
   679  00236A  6EF6               	movwf	tblptrl,c
   680  00236C  0E25               	movlw	high __pidataBANK0
   681  00236E  6EF7               	movwf	tblptrh,c
   682  002370  0E00               	movlw	low (__pidataBANK0 shr (0+16))
   683  002372  6EF8               	movwf	tblptru,c
   684  002374  EE00  F076         	lfsr	0,__pdataBANK0
   685  002378  EE10 F006          	lfsr	1,6
   686  00237C                     copy_data1:
   687  00237C  0009               	tblrd		*+
   688  00237E  006F FFD7 FFEE     	movff	tablat,postinc0
   689  002384  50E5               	movf	postdec1,w,c
   690  002386  50E1               	movf	fsr1l,w,c
   691  002388  E1F9               	bnz	copy_data1
   692                           
   693                           ; Clear objects allocated to BANK0 (16 bytes)
   694  00238A  EE00  F060         	lfsr	0,__pbssBANK0
   695  00238E  0E10               	movlw	16
   696  002390                     clear_0:
   697  002390  6AEE               	clrf	postinc0,c
   698  002392  06E8               	decf	wreg,f,c
   699  002394  E1FD               	bnz	clear_0
   700                           
   701                           ; Clear objects allocated to COMRAM (24 bytes)
   702  002396  EE00  F048         	lfsr	0,__pbssCOMRAM
   703  00239A  0E18               	movlw	24
   704  00239C                     clear_1:
   705  00239C  6AEE               	clrf	postinc0,c
   706  00239E  06E8               	decf	wreg,f,c
   707  0023A0  E1FD               	bnz	clear_1
   708  0023A2                     end_of_initialization:
   709                           	callstack 0
   710  0023A2                     __end_of__initialization:
   711                           	callstack 0
   712  0023A2  0100               	movlb	0
   713  0023A4  EF6E  F008         	goto	_main	;jump to C main() function
   714                           
   715                           	psect	bssCOMRAM
   716  000048                     __pbssCOMRAM:
   717                           	callstack 0
   718  000048                     _voltage:
   719                           	callstack 0
   720  000048                     	ds	4
   721  00004C                     _bms_status:
   722                           	callstack 0
   723  00004C                     	ds	2
   724  00004E                     _firstDrive:
   725                           	callstack 0
   726  00004E                     	ds	2
   727  000050                     _firstHV:
   728                           	callstack 0
   729  000050                     	ds	2
   730  000052                     _firstLV:
   731                           	callstack 0
   732  000052                     	ds	2
   733  000054                     _uart1RxLastError:
   734                           	callstack 0
   735  000054                     	ds	1
   736  000055                     _DriveSwitch:
   737                           	callstack 0
   738  000055                     	ds	1
   739  000056                     _HVSwitch:
   740                           	callstack 0
   741  000056                     	ds	1
   742  000057                     _charge:
   743                           	callstack 0
   744  000057                     	ds	1
   745  000058                     _PACK_TEMP:
   746                           	callstack 0
   747  000058                     	ds	1
   748  000059                     _THROTTLE_LOW:
   749                           	callstack 0
   750  000059                     	ds	1
   751  00005A                     _THROTTLE_HIGH:
   752                           	callstack 0
   753  00005A                     	ds	1
   754  00005B                     _ACK_RX:
   755                           	callstack 0
   756  00005B                     	ds	1
   757  00005C                     _CAPACITOR_VOLT:
   758                           	callstack 0
   759  00005C                     	ds	1
   760  00005D                     _ABS_MOTOR_RPM:
   761                           	callstack 0
   762  00005D                     	ds	1
   763  00005E                     _CURTIS_HEART_BEAT_CHECK:
   764                           	callstack 0
   765  00005E                     	ds	1
   766  00005F                     _ERROR_TOLERANCE:
   767                           	callstack 0
   768  00005F                     	ds	1
   769                           
   770                           	psect	bssBANK0
   771  000060                     __pbssBANK0:
   772                           	callstack 0
   773  000060                     _pedalOK:
   774                           	callstack 0
   775  000060                     	ds	4
   776  000064                     _CURRENT:
   777                           	callstack 0
   778  000064                     	ds	4
   779  000068                     _firstStart:
   780                           	callstack 0
   781  000068                     	ds	2
   782  00006A                     _curr_voltage:
   783                           	callstack 0
   784  00006A                     	ds	2
   785  00006C                     _ERROR_IDX:
   786                           	callstack 0
   787  00006C                     	ds	2
   788  00006E                     _ERROR_NODE:
   789                           	callstack 0
   790  00006E                     	ds	2
   791                           
   792                           	psect	dataBANK0
   793  000076                     __pdataBANK0:
   794                           	callstack 0
   795  000076                     _THROTTLE_MULTIPLIER:
   796                           	callstack 0
   797  000076                     	ds	4
   798  00007A                     _previous_state:
   799                           	callstack 0
   800  00007A                     	ds	2
   801                           
   802                           	psect	dataBIGRAM
   803  000E20                     __pdataBIGRAM:
   804                           	callstack 0
   805  000E20                     _SOC_LUT:
   806                           	callstack 0
   807  000E20                     	ds	480
   808                           
   809                           	psect	cstackCOMRAM
   810  000001                     __pcstackCOMRAM:
   811                           	callstack 0
   812  000001                     ?_strlen:
   813                           	callstack 0
   814  000001                     ?___lldiv:
   815                           	callstack 0
   816  000001                     ?___xxtofl:
   817                           	callstack 0
   818  000001                     UART1_Write@txData:
   819                           	callstack 0
   820  000001                     UART1_SetFramingErrorHandler@interruptHandler:
   821                           	callstack 0
   822  000001                     UART1_SetOverrunErrorHandler@interruptHandler:
   823                           	callstack 0
   824  000001                     UART1_SetErrorHandler@interruptHandler:
   825                           	callstack 0
   826  000001                     strlen@s:
   827                           	callstack 0
   828  000001                     ___lldiv@dividend:
   829                           	callstack 0
   830  000001                     ___xxtofl@val:
   831                           	callstack 0
   832                           
   833                           ; 4 bytes @ 0x0
   834  000001                     	ds	2
   835  000003                     strlen@a:
   836                           	callstack 0
   837                           
   838                           ; 2 bytes @ 0x2
   839  000003                     	ds	2
   840  000005                     ??___xxtofl:
   841  000005                     print@message:
   842                           	callstack 0
   843  000005                     ___lldiv@divisor:
   844                           	callstack 0
   845                           
   846                           ; 4 bytes @ 0x4
   847  000005                     	ds	2
   848  000007                     ??_print:
   849                           
   850                           ; 1 bytes @ 0x6
   851  000007                     	ds	2
   852  000009                     print@i:
   853                           	callstack 0
   854  000009                     ___xxtofl@sign:
   855                           	callstack 0
   856  000009                     ___lldiv@quotient:
   857                           	callstack 0
   858                           
   859                           ; 4 bytes @ 0x8
   860  000009                     	ds	1
   861  00000A                     ___xxtofl@exp:
   862                           	callstack 0
   863                           
   864                           ; 1 bytes @ 0x9
   865  00000A                     	ds	1
   866  00000B                     ___xxtofl@arg:
   867                           	callstack 0
   868                           
   869                           ; 4 bytes @ 0xA
   870  00000B                     	ds	2
   871  00000D                     ___lldiv@counter:
   872                           	callstack 0
   873                           
   874                           ; 1 bytes @ 0xC
   875  00000D                     	ds	1
   876  00000E                     ?___awdiv:
   877                           	callstack 0
   878  00000E                     ___awdiv@dividend:
   879                           	callstack 0
   880                           
   881                           ; 2 bytes @ 0xD
   882  00000E                     	ds	1
   883  00000F                     ?___flmul:
   884                           	callstack 0
   885  00000F                     ___flmul@b:
   886                           	callstack 0
   887                           
   888                           ; 4 bytes @ 0xE
   889  00000F                     	ds	1
   890  000010                     ___awdiv@divisor:
   891                           	callstack 0
   892                           
   893                           ; 2 bytes @ 0xF
   894  000010                     	ds	2
   895  000012                     ___awdiv@counter:
   896                           	callstack 0
   897                           
   898                           ; 1 bytes @ 0x11
   899  000012                     	ds	1
   900  000013                     ___awdiv@sign:
   901                           	callstack 0
   902  000013                     ___flmul@a:
   903                           	callstack 0
   904                           
   905                           ; 4 bytes @ 0x12
   906  000013                     	ds	1
   907  000014                     ___awdiv@quotient:
   908                           	callstack 0
   909                           
   910                           ; 2 bytes @ 0x13
   911  000014                     	ds	3
   912  000017                     ??___flmul:
   913                           
   914                           ; 1 bytes @ 0x16
   915  000017                     	ds	4
   916  00001B                     ___flmul@sign:
   917                           	callstack 0
   918                           
   919                           ; 1 bytes @ 0x1A
   920  00001B                     	ds	1
   921  00001C                     ___flmul@grs:
   922                           	callstack 0
   923                           
   924                           ; 4 bytes @ 0x1B
   925  00001C                     	ds	4
   926  000020                     ___flmul@aexp:
   927                           	callstack 0
   928                           
   929                           ; 1 bytes @ 0x1F
   930  000020                     	ds	1
   931  000021                     ___flmul@bexp:
   932                           	callstack 0
   933                           
   934                           ; 1 bytes @ 0x20
   935  000021                     	ds	1
   936  000022                     ___flmul@prod:
   937                           	callstack 0
   938                           
   939                           ; 4 bytes @ 0x21
   940  000022                     	ds	4
   941  000026                     ___flmul@temp:
   942                           	callstack 0
   943                           
   944                           ; 2 bytes @ 0x25
   945  000026                     	ds	2
   946  000028                     ?___fltol:
   947                           	callstack 0
   948  000028                     ___fltol@f1:
   949                           	callstack 0
   950                           
   951                           ; 4 bytes @ 0x27
   952  000028                     	ds	4
   953  00002C                     ??___fltol:
   954                           
   955                           ; 1 bytes @ 0x2B
   956  00002C                     	ds	4
   957  000030                     ___fltol@sign1:
   958                           	callstack 0
   959                           
   960                           ; 1 bytes @ 0x2F
   961  000030                     	ds	1
   962  000031                     ___fltol@exp1:
   963                           	callstack 0
   964                           
   965                           ; 1 bytes @ 0x30
   966  000031                     	ds	1
   967  000032                     ??_main:
   968                           
   969                           ; 1 bytes @ 0x31
   970  000032                     	ds	3
   971  000035                     main@ABS_Motor_RPM:
   972                           	callstack 0
   973                           
   974                           ; 1 bytes @ 0x34
   975  000035                     	ds	1
   976  000036                     main@Throttle_High:
   977                           	callstack 0
   978                           
   979                           ; 1 bytes @ 0x35
   980  000036                     	ds	1
   981  000037                     main@Throttle_Low:
   982                           	callstack 0
   983                           
   984                           ; 1 bytes @ 0x36
   985  000037                     	ds	1
   986  000038                     main@faulted:
   987                           	callstack 0
   988                           
   989                           ; 2 bytes @ 0x37
   990  000038                     	ds	2
   991  00003A                     main@CapacitorVolt:
   992                           	callstack 0
   993                           
   994                           ; 1 bytes @ 0x39
   995  00003A                     	ds	1
   996  00003B                     main@ACK:
   997                           	callstack 0
   998                           
   999                           ; 1 bytes @ 0x3A
  1000  00003B                     	ds	1
  1001  00003C                     main@DriveTimeCount:
  1002                           	callstack 0
  1003                           
  1004                           ; 4 bytes @ 0x3B
  1005  00003C                     	ds	4
  1006  000040                     main@Throttle_Total:
  1007                           	callstack 0
  1008                           
  1009                           ; 2 bytes @ 0x3F
  1010  000040                     	ds	2
  1011  000042                     main@state:
  1012                           	callstack 0
  1013                           
  1014                           ; 1 bytes @ 0x41
  1015  000042                     	ds	1
  1016  000043                     main@PrechargingTimeCount:
  1017                           	callstack 0
  1018                           
  1019                           ; 4 bytes @ 0x42
  1020  000043                     	ds	4
  1021  000047                     main@error_state:
  1022                           	callstack 0
  1023                           
  1024                           ; 1 bytes @ 0x46
  1025  000047                     	ds	1
  1026                           
  1027 ;;
  1028 ;;Main: autosize = 0, tempsize = 3, incstack = 0, save=0
  1029 ;;
  1030 ;; *************** function _main *****************
  1031 ;; Defined at:
  1032 ;;		line 370 in file "main.c"
  1033 ;; Parameters:    Size  Location     Type
  1034 ;;		None
  1035 ;; Auto vars:     Size  Location     Type
  1036 ;;  CapacitorVol    1   57[COMRAM] unsigned char 
  1037 ;;  Throttle_Tot    2   63[COMRAM] unsigned short 
  1038 ;;  ACK             1   58[COMRAM] unsigned char 
  1039 ;;  Throttle_Low    1   54[COMRAM] unsigned char 
  1040 ;;  Throttle_Hig    1   53[COMRAM] unsigned char 
  1041 ;;  ABS_Motor_RP    1   52[COMRAM] unsigned char 
  1042 ;;  DriveTimeCou    4   59[COMRAM] unsigned long 
  1043 ;;  PrechargingT    4   66[COMRAM] volatile unsigned long 
  1044 ;;  faulted         2   55[COMRAM] int 
  1045 ;;  bms_error       2    0        int 
  1046 ;;  error_state     1   70[COMRAM] enum E23187
  1047 ;;  state           1   65[COMRAM] enum E23179
  1048 ;;  direction       1    0        char 
  1049 ;;  value           1    0        unsigned char 
  1050 ;; Return value:  Size  Location     Type
  1051 ;;                  1    wreg      void 
  1052 ;; Registers used:
  1053 ;;		wreg, fsr2l, fsr2h, status,2, status,0, tblptrl, tblptrh, tblptru, prodl, prodh, cstack
  1054 ;; Tracked objects:
  1055 ;;		On entry : 0/0
  1056 ;;		On exit  : 0/0
  1057 ;;		Unchanged: 0/0
  1058 ;; Data sizes:     COMRAM   BANK0   BANK1   BANK2   BANK3   BANK4   BANK5   BANK6   BANK7   BANK8   BANK9  BANK10  BANK1
      +1  BANK12  BANK13  BANK14  BANK15
  1059 ;;      Params:         0       0       0       0       0       0       0       0       0       0       0       0       
      +0       0       0       0       0
  1060 ;;      Locals:        19       0       0       0       0       0       0       0       0       0       0       0       
      +0       0       0       0       0
  1061 ;;      Temps:          3       0       0       0       0       0       0       0       0       0       0       0       
      +0       0       0       0       0
  1062 ;;      Totals:        22       0       0       0       0       0       0       0       0       0       0       0       
      +0       0       0       0       0
  1063 ;;Total ram usage:       22 bytes
  1064 ;; Hardware stack levels required when called: 3
  1065 ;; This function calls:
  1066 ;;		_Drive_Read
  1067 ;;		_HV_Read
  1068 ;;		_SYSTEM_Initialize
  1069 ;;		___awdiv
  1070 ;;		___flmul
  1071 ;;		___fltol
  1072 ;;		___lldiv
  1073 ;;		___xxtofl
  1074 ;;		_getABSMotorRPM
  1075 ;;		_getAckRx
  1076 ;;		_getCapacitorVoltage
  1077 ;;		_getCurtisHeartBeatCheck
  1078 ;;		_getErrorTolerance
  1079 ;;		_getPedalHigh
  1080 ;;		_getPedalLow
  1081 ;;		_print
  1082 ;; This function is called by:
  1083 ;;		Startup code after reset
  1084 ;; This function uses a non-reentrant model
  1085 ;;
  1086                           
  1087                           	psect	text0
  1088  0010DC                     __ptext0:
  1089                           	callstack 0
  1090  0010DC                     _main:
  1091                           	callstack 28
  1092  0010DC                     
  1093                           ;main.c: 373:     SYSTEM_Initialize();
  1094  0010DC  EC8D  F012         	call	_SYSTEM_Initialize	;wreg free
  1095  0010E0                     
  1096                           ;main.c: 375:     print("STart");
  1097  0010E0  0ECA               	movlw	low STR_2
  1098  0010E2  6E05               	movwf	print@message^0,c
  1099  0010E4  0E10               	movlw	high STR_2
  1100  0010E6  6E06               	movwf	(print@message+1)^0,c
  1101  0010E8  ECD4  F011         	call	_print	;wreg free
  1102  0010EC                     
  1103                           ;main.c: 380:     Dash_State state = Startup;
  1104  0010EC  0E00               	movlw	0
  1105  0010EE  6E42               	movwf	main@state^0,c
  1106  0010F0                     
  1107                           ;main.c: 381:     Error_State error_state = OK;
  1108  0010F0  0E00               	movlw	0
  1109  0010F2  6E47               	movwf	main@error_state^0,c
  1110  0010F4                     
  1111                           ;main.c: 388:     volatile uint32_t PrechargingTimeCount = 0;
  1112  0010F4  0E00               	movlw	0
  1113  0010F6  6E43               	movwf	main@PrechargingTimeCount^0,c	;volatile
  1114  0010F8  0E00               	movlw	0
  1115  0010FA  6E44               	movwf	(main@PrechargingTimeCount+1)^0,c	;volatile
  1116  0010FC  0E00               	movlw	0
  1117  0010FE  6E45               	movwf	(main@PrechargingTimeCount+2)^0,c	;volatile
  1118  001100  0E00               	movlw	0
  1119  001102  6E46               	movwf	(main@PrechargingTimeCount+3)^0,c	;volatile
  1120  001104                     
  1121                           ;main.c: 389:     uint32_t DriveTimeCount = 0;
  1122  001104  0E00               	movlw	0
  1123  001106  6E3C               	movwf	main@DriveTimeCount^0,c
  1124  001108  0E00               	movlw	0
  1125  00110A  6E3D               	movwf	(main@DriveTimeCount+1)^0,c
  1126  00110C  0E00               	movlw	0
  1127  00110E  6E3E               	movwf	(main@DriveTimeCount+2)^0,c
  1128  001110  0E00               	movlw	0
  1129  001112  6E3F               	movwf	(main@DriveTimeCount+3)^0,c
  1130  001114                     
  1131                           ;main.c: 404:     bms_status = NO_ERROR;
  1132  001114  0E00               	movlw	0
  1133  001116  6E4D               	movwf	(_bms_status+1)^0,c	;volatile
  1134  001118  0E00               	movlw	0
  1135  00111A  6E4C               	movwf	_bms_status^0,c	;volatile
  1136  00111C                     
  1137                           ;main.c: 405:     int bms_error;;main.c: 406:     int faulted = 0;
  1138  00111C  0E00               	movlw	0
  1139  00111E  6E39               	movwf	(main@faulted+1)^0,c
  1140  001120  0E00               	movlw	0
  1141  001122  6E38               	movwf	main@faulted^0,c
  1142  001124                     l2125:
  1143                           
  1144                           ;main.c: 410:     {;main.c: 415:         if (pedalOK > 100)
  1145  001124  0100               	movlb	0	; () banked
  1146  001126  5163               	movf	(_pedalOK+3)& (0+255),w,b	;volatile
  1147  001128  1162               	iorwf	(_pedalOK+2)& (0+255),w,b	;volatile
  1148  00112A  1161               	iorwf	(_pedalOK+1)& (0+255),w,b	;volatile
  1149  00112C  E109               	bnz	u1460
  1150  00112E  0E65               	movlw	101
  1151  001130  5D60               	subwf	_pedalOK& (0+255),w,b	;volatile
  1152  001132  A0D8               	btfss	status,0,c
  1153  001134  EF9E  F008         	goto	u1461
  1154  001138  EFA0  F008         	goto	u1460
  1155  00113C                     u1461:
  1156  00113C  EFA4  F008         	goto	l2129
  1157  001140                     u1460:
  1158  001140                     
  1159                           ; BSR set to: 0
  1160                           ;main.c: 416:         {;main.c: 418:             state = Fault;
  1161  001140  0E05               	movlw	5
  1162  001142  6E42               	movwf	main@state^0,c
  1163                           
  1164                           ;main.c: 419:             error_state = nodeFailure;
  1165  001144  0E07               	movlw	7
  1166  001146  6E47               	movwf	main@error_state^0,c
  1167  001148                     l2129:
  1168                           
  1169                           ; BSR set to: 0
  1170                           ;main.c: 422:         if(bms_status != NO_ERROR && state != Startup) {
  1171  001148  504C               	movf	_bms_status^0,w,c	;volatile
  1172  00114A  104D               	iorwf	(_bms_status+1)^0,w,c	;volatile
  1173  00114C  B4D8               	btfsc	status,2,c
  1174  00114E  EFAB  F008         	goto	u1471
  1175  001152  EFAD  F008         	goto	u1470
  1176  001156                     u1471:
  1177  001156  EF1E  F00C         	goto	l2321
  1178  00115A                     u1470:
  1179  00115A                     
  1180                           ; BSR set to: 0
  1181  00115A  5042               	movf	main@state^0,w,c
  1182  00115C  B4D8               	btfsc	status,2,c
  1183  00115E  EFB3  F008         	goto	u1481
  1184  001162  EFB5  F008         	goto	u1480
  1185  001166                     u1481:
  1186  001166  EF1E  F00C         	goto	l2321
  1187  00116A                     u1480:
  1188  00116A                     
  1189                           ; BSR set to: 0
  1190                           ;main.c: 423:             state = Fault;
  1191  00116A  0E05               	movlw	5
  1192  00116C  6E42               	movwf	main@state^0,c
  1193                           
  1194                           ;main.c: 424:             error_state = fromBMS;
  1195  00116E  0E06               	movlw	6
  1196  001170  6E47               	movwf	main@error_state^0,c
  1197  001172                     
  1198                           ; BSR set to: 0
  1199                           ;main.c: 425:             if(!faulted)
  1200  001172  5038               	movf	main@faulted^0,w,c
  1201  001174  1039               	iorwf	(main@faulted+1)^0,w,c
  1202  001176  A4D8               	btfss	status,2,c
  1203  001178  EFC0  F008         	goto	u1491
  1204  00117C  EFC2  F008         	goto	u1490
  1205  001180                     u1491:
  1206  001180  EF1E  F00C         	goto	l2321
  1207  001184                     u1490:
  1208  001184                     
  1209                           ; BSR set to: 0
  1210  001184  EF1E  F00C         	goto	l2321
  1211  001188                     l2139:
  1212                           
  1213                           ; BSR set to: 0
  1214                           ;main.c: 439:                      print("START");
  1215  001188  0EC4               	movlw	low STR_3
  1216  00118A  6E05               	movwf	print@message^0,c
  1217  00118C  0E10               	movlw	high STR_3
  1218  00118E  6E06               	movwf	(print@message+1)^0,c
  1219  001190  ECD4  F011         	call	_print	;wreg free
  1220  001194                     
  1221                           ;main.c: 449:                 print("LED: RAINBOW");
  1222  001194  0E53               	movlw	low STR_4
  1223  001196  6E05               	movwf	print@message^0,c
  1224  001198  0E10               	movlw	high STR_4
  1225  00119A  6E06               	movwf	(print@message+1)^0,c
  1226  00119C  ECD4  F011         	call	_print	;wreg free
  1227                           
  1228                           ;main.c: 455:                 print("Buzzer: off");
  1229  0011A0  0E79               	movlw	low STR_5
  1230  0011A2  6E05               	movwf	print@message^0,c
  1231  0011A4  0E10               	movlw	high STR_5
  1232  0011A6  6E06               	movwf	(print@message+1)^0,c
  1233  0011A8  ECD4  F011         	call	_print	;wreg free
  1234  0011AC                     
  1235                           ;main.c: 456:                 _delay((unsigned long)((50)*(1000000/4000.0)));
  1236  0011AC  0E11               	movlw	17
  1237  0011AE  6E32               	movwf	??_main^0,c
  1238  0011B0  0E3A               	movlw	58
  1239  0011B2                     u1897:
  1240  0011B2  2EE8               	decfsz	wreg,f,c
  1241  0011B4  D7FE               	bra	u1897
  1242  0011B6  2E32               	decfsz	??_main^0,f,c
  1243  0011B8  D7FC               	bra	u1897
  1244  0011BA  D000               	nop2	
  1245  0011BC                     
  1246                           ;main.c: 459:                 print("Buzzer: on");
  1247  0011BC  0E90               	movlw	low STR_6
  1248  0011BE  6E05               	movwf	print@message^0,c
  1249  0011C0  0E10               	movlw	high STR_6
  1250  0011C2  6E06               	movwf	(print@message+1)^0,c
  1251  0011C4  ECD4  F011         	call	_print	;wreg free
  1252  0011C8                     
  1253                           ;main.c: 461:                 state = LV;
  1254  0011C8  0E01               	movlw	1
  1255  0011CA  6E42               	movwf	main@state^0,c
  1256                           
  1257                           ;main.c: 463:             break;
  1258  0011CC  EF92  F008         	goto	l2125
  1259  0011D0                     l2149:
  1260                           
  1261                           ; BSR set to: 0
  1262                           ;main.c: 466:                 if(firstLV == 0) {
  1263  0011D0  5052               	movf	_firstLV^0,w,c
  1264  0011D2  1053               	iorwf	(_firstLV+1)^0,w,c
  1265  0011D4  A4D8               	btfss	status,2,c
  1266  0011D6  EFEF  F008         	goto	u1501
  1267  0011DA  EFF1  F008         	goto	u1500
  1268  0011DE                     u1501:
  1269  0011DE  EFFD  F008         	goto	l2155
  1270  0011E2                     u1500:
  1271  0011E2                     
  1272                           ; BSR set to: 0
  1273                           ;main.c: 470:                     print("LV");
  1274  0011E2  0ED8               	movlw	low STR_7
  1275  0011E4  6E05               	movwf	print@message^0,c
  1276  0011E6  0E10               	movlw	high STR_7
  1277  0011E8  6E06               	movwf	(print@message+1)^0,c
  1278  0011EA  ECD4  F011         	call	_print	;wreg free
  1279  0011EE                     
  1280                           ;main.c: 471:                     firstLV = 1;
  1281  0011EE  0E00               	movlw	0
  1282  0011F0  6E53               	movwf	(_firstLV+1)^0,c
  1283  0011F2  0E01               	movlw	1
  1284  0011F4  6E52               	movwf	_firstLV^0,c
  1285                           
  1286                           ;main.c: 472:                 } else {
  1287  0011F6  EF30  F009         	goto	l2159
  1288  0011FA                     l2155:
  1289                           
  1290                           ; BSR set to: 0
  1291                           ;main.c: 473:                     charge = SOC_LUT[(voltage - 93400) / 100] / 100;
  1292  0011FA  0E64               	movlw	100
  1293  0011FC  6E05               	movwf	___lldiv@divisor^0,c
  1294  0011FE  0E00               	movlw	0
  1295  001200  6E06               	movwf	(___lldiv@divisor+1)^0,c
  1296  001202  0E00               	movlw	0
  1297  001204  6E07               	movwf	(___lldiv@divisor+2)^0,c
  1298  001206  0E00               	movlw	0
  1299  001208  6E08               	movwf	(___lldiv@divisor+3)^0,c
  1300  00120A  0E28               	movlw	40
  1301  00120C  2448               	addwf	_voltage^0,w,c	;volatile
  1302  00120E  6E01               	movwf	___lldiv@dividend^0,c
  1303  001210  0E93               	movlw	147
  1304  001212  2049               	addwfc	(_voltage+1)^0,w,c	;volatile
  1305  001214  6E02               	movwf	(___lldiv@dividend+1)^0,c
  1306  001216  0EFE               	movlw	254
  1307  001218  204A               	addwfc	(_voltage+2)^0,w,c	;volatile
  1308  00121A  6E03               	movwf	(___lldiv@dividend+2)^0,c
  1309  00121C  0EFF               	movlw	255
  1310  00121E  204B               	addwfc	(_voltage+3)^0,w,c	;volatile
  1311  001220  6E04               	movwf	(___lldiv@dividend+3)^0,c
  1312  001222  EC1B  F011         	call	___lldiv	;wreg free
  1313  001226  90D8               	bcf	status,0,c
  1314  001228  3601               	rlcf	?___lldiv^0,f,c
  1315  00122A  3602               	rlcf	(?___lldiv+1)^0,f,c
  1316  00122C  0E20               	movlw	low _SOC_LUT
  1317  00122E  2401               	addwf	?___lldiv^0,w,c
  1318  001230  6ED9               	movwf	fsr2l,c
  1319  001232  0E0E               	movlw	high _SOC_LUT
  1320  001234  2002               	addwfc	(?___lldiv+1)^0,w,c
  1321  001236  6EDA               	movwf	fsr2h,c
  1322  001238  006F FF78  F00E    	movff	postinc2,___awdiv@dividend
  1323  00123E  006F FF74  F00F    	movff	postdec2,___awdiv@dividend+1
  1324  001244  0E00               	movlw	0
  1325  001246  6E11               	movwf	(___awdiv@divisor+1)^0,c
  1326  001248  0E64               	movlw	100
  1327  00124A  6E10               	movwf	___awdiv@divisor^0,c
  1328  00124C  ECB9  F010         	call	___awdiv	;wreg free
  1329  001250  500E               	movf	?___awdiv^0,w,c
  1330  001252  6E57               	movwf	_charge^0,c
  1331  001254                     
  1332                           ;main.c: 475:                     print("Displaying data");
  1333  001254  0E36               	movlw	low STR_8
  1334  001256  6E05               	movwf	print@message^0,c
  1335  001258  0E10               	movlw	high STR_8
  1336  00125A  6E06               	movwf	(print@message+1)^0,c
  1337  00125C  ECD4  F011         	call	_print	;wreg free
  1338  001260                     l2159:
  1339                           
  1340                           ;main.c: 492:                 print("Buzzer: off");
  1341  001260  0E79               	movlw	low STR_5
  1342  001262  6E05               	movwf	print@message^0,c
  1343  001264  0E10               	movlw	high STR_5
  1344  001266  6E06               	movwf	(print@message+1)^0,c
  1345  001268  ECD4  F011         	call	_print	;wreg free
  1346  00126C                     
  1347                           ;main.c: 499:                 print("LED: YELLOW");
  1348  00126C  0E6D               	movlw	low STR_10
  1349  00126E  6E05               	movwf	print@message^0,c
  1350  001270  0E10               	movlw	high STR_10
  1351  001272  6E06               	movwf	(print@message+1)^0,c
  1352  001274  ECD4  F011         	call	_print	;wreg free
  1353  001278                     
  1354                           ;main.c: 501:                 if (Drive_Read())
  1355  001278  EC83  F012         	call	_Drive_Read	;wreg free
  1356  00127C  0900               	iorlw	0
  1357  00127E  B4D8               	btfsc	status,2,c
  1358  001280  EF44  F009         	goto	u1511
  1359  001284  EF46  F009         	goto	u1510
  1360  001288                     u1511:
  1361  001288  EF4C  F009         	goto	l2167
  1362  00128C                     u1510:
  1363  00128C                     
  1364                           ;main.c: 502:                 {;main.c: 503:                     state = Fault;
  1365  00128C  0E05               	movlw	5
  1366  00128E  6E42               	movwf	main@state^0,c
  1367                           
  1368                           ;main.c: 504:                     error_state = fromLV;
  1369  001290  0E01               	movlw	1
  1370  001292  6E47               	movwf	main@error_state^0,c
  1371                           
  1372                           ;main.c: 505:                     break;
  1373  001294  EF92  F008         	goto	l2125
  1374  001298                     l2167:
  1375                           
  1376                           ;main.c: 508:                 if (HV_Read())
  1377  001298  EC79  F012         	call	_HV_Read	;wreg free
  1378  00129C  0900               	iorlw	0
  1379  00129E  B4D8               	btfsc	status,2,c
  1380  0012A0  EF54  F009         	goto	u1521
  1381  0012A4  EF56  F009         	goto	u1520
  1382  0012A8                     u1521:
  1383  0012A8  EF92  F008         	goto	l2125
  1384  0012AC                     u1520:
  1385  0012AC                     
  1386                           ;main.c: 509:                 {;main.c: 510:                     state = Precharging;
  1387  0012AC  0E02               	movlw	2
  1388  0012AE  6E42               	movwf	main@state^0,c
  1389                           
  1390                           ;main.c: 511:                     break;
  1391  0012B0  EF92  F008         	goto	l2125
  1392  0012B4                     l2171:
  1393                           
  1394                           ; BSR set to: 0
  1395                           ;main.c: 520:                 print("PRCHGE");
  1396  0012B4  0EB7               	movlw	low STR_11
  1397  0012B6  6E05               	movwf	print@message^0,c
  1398  0012B8  0E10               	movlw	high STR_11
  1399  0012BA  6E06               	movwf	(print@message+1)^0,c
  1400  0012BC  ECD4  F011         	call	_print	;wreg free
  1401                           
  1402                           ;main.c: 531:                 print("LED: MAGENTA");
  1403  0012C0  0E46               	movlw	low STR_12
  1404  0012C2  6E05               	movwf	print@message^0,c
  1405  0012C4  0E10               	movlw	high STR_12
  1406  0012C6  6E06               	movwf	(print@message+1)^0,c
  1407  0012C8  ECD4  F011         	call	_print	;wreg free
  1408  0012CC                     
  1409                           ;main.c: 533:                 PrechargingTimeCount = 0;
  1410  0012CC  0E00               	movlw	0
  1411  0012CE  6E43               	movwf	main@PrechargingTimeCount^0,c	;volatile
  1412  0012D0  0E00               	movlw	0
  1413  0012D2  6E44               	movwf	(main@PrechargingTimeCount+1)^0,c	;volatile
  1414  0012D4  0E00               	movlw	0
  1415  0012D6  6E45               	movwf	(main@PrechargingTimeCount+2)^0,c	;volatile
  1416  0012D8  0E00               	movlw	0
  1417  0012DA  6E46               	movwf	(main@PrechargingTimeCount+3)^0,c	;volatile
  1418  0012DC                     l2175:
  1419                           
  1420                           ;main.c: 536:                 {;main.c: 539:                     uint8_t CapacitorVolt =
      +                           getCapacitorVoltage();
  1421  0012DC  ECB0  F012         	call	_getCapacitorVoltage	;wreg free
  1422  0012E0  6E3A               	movwf	main@CapacitorVolt^0,c
  1423  0012E2                     
  1424                           ;main.c: 541:                     if(CapacitorVolt >= 0x16)
  1425  0012E2  0E15               	movlw	21
  1426  0012E4  643A               	cpfsgt	main@CapacitorVolt^0,c
  1427  0012E6  EF77  F009         	goto	u1531
  1428  0012EA  EF79  F009         	goto	u1530
  1429  0012EE                     u1531:
  1430  0012EE  EF7D  F009         	goto	l2181
  1431  0012F2                     u1530:
  1432  0012F2                     
  1433                           ;main.c: 542:                     {;main.c: 543:                         state = HV_Enab
      +                          led;
  1434  0012F2  0E03               	movlw	3
  1435  0012F4  6E42               	movwf	main@state^0,c
  1436                           
  1437                           ;main.c: 544:                         break;
  1438  0012F6  EF92  F008         	goto	l2125
  1439  0012FA                     l2181:
  1440                           
  1441                           ;main.c: 548:                     PrechargingTimeCount++;
  1442  0012FA  0E01               	movlw	1
  1443  0012FC  2643               	addwf	main@PrechargingTimeCount^0,f,c	;volatile
  1444  0012FE  0E00               	movlw	0
  1445  001300  2244               	addwfc	(main@PrechargingTimeCount+1)^0,f,c	;volatile
  1446  001302  2245               	addwfc	(main@PrechargingTimeCount+2)^0,f,c	;volatile
  1447  001304  2246               	addwfc	(main@PrechargingTimeCount+3)^0,f,c	;volatile
  1448                           
  1449                           ;main.c: 550:                     if (PrechargingTimeCount == 10)
  1450  001306  0E0A               	movlw	10
  1451  001308  1843               	xorwf	main@PrechargingTimeCount^0,w,c	;volatile
  1452  00130A  1044               	iorwf	(main@PrechargingTimeCount+1)^0,w,c	;volatile
  1453  00130C  1045               	iorwf	(main@PrechargingTimeCount+2)^0,w,c	;volatile
  1454  00130E  1046               	iorwf	(main@PrechargingTimeCount+3)^0,w,c	;volatile
  1455  001310  A4D8               	btfss	status,2,c
  1456  001312  EF8D  F009         	goto	u1541
  1457  001316  EF8F  F009         	goto	u1540
  1458  00131A                     u1541:
  1459  00131A  EF6E  F009         	goto	l2175
  1460  00131E                     u1540:
  1461  00131E                     
  1462                           ;main.c: 551:                     {;main.c: 552:                         state = Fault;
  1463  00131E  0E05               	movlw	5
  1464  001320  6E42               	movwf	main@state^0,c
  1465                           
  1466                           ;main.c: 553:                         error_state = fromPrecharging;
  1467  001322  0E02               	movlw	2
  1468  001324  6E47               	movwf	main@error_state^0,c
  1469                           
  1470                           ;main.c: 554:                         break;
  1471  001326  EF92  F008         	goto	l2125
  1472  00132A                     l2185:
  1473                           
  1474                           ; BSR set to: 0
  1475                           ;main.c: 563:                 if(firstHV == 0) {
  1476  00132A  5050               	movf	_firstHV^0,w,c
  1477  00132C  1051               	iorwf	(_firstHV+1)^0,w,c
  1478  00132E  A4D8               	btfss	status,2,c
  1479  001330  EF9C  F009         	goto	u1551
  1480  001334  EF9E  F009         	goto	u1550
  1481  001338                     u1551:
  1482  001338  EFAA  F009         	goto	l2191
  1483  00133C                     u1550:
  1484  00133C                     
  1485                           ; BSR set to: 0
  1486                           ;main.c: 567:                     print("HV");
  1487  00133C  0ED5               	movlw	low STR_13
  1488  00133E  6E05               	movwf	print@message^0,c
  1489  001340  0E10               	movlw	high STR_13
  1490  001342  6E06               	movwf	(print@message+1)^0,c
  1491  001344  ECD4  F011         	call	_print	;wreg free
  1492  001348                     
  1493                           ;main.c: 568:                     firstHV = 1;
  1494  001348  0E00               	movlw	0
  1495  00134A  6E51               	movwf	(_firstHV+1)^0,c
  1496  00134C  0E01               	movlw	1
  1497  00134E  6E50               	movwf	_firstHV^0,c
  1498                           
  1499                           ;main.c: 569:                 } else {
  1500  001350  EFDD  F009         	goto	l2195
  1501  001354                     l2191:
  1502                           
  1503                           ; BSR set to: 0
  1504                           ;main.c: 570:                     charge = SOC_LUT[(voltage - 93400) / 100] / 100;
  1505  001354  0E64               	movlw	100
  1506  001356  6E05               	movwf	___lldiv@divisor^0,c
  1507  001358  0E00               	movlw	0
  1508  00135A  6E06               	movwf	(___lldiv@divisor+1)^0,c
  1509  00135C  0E00               	movlw	0
  1510  00135E  6E07               	movwf	(___lldiv@divisor+2)^0,c
  1511  001360  0E00               	movlw	0
  1512  001362  6E08               	movwf	(___lldiv@divisor+3)^0,c
  1513  001364  0E28               	movlw	40
  1514  001366  2448               	addwf	_voltage^0,w,c	;volatile
  1515  001368  6E01               	movwf	___lldiv@dividend^0,c
  1516  00136A  0E93               	movlw	147
  1517  00136C  2049               	addwfc	(_voltage+1)^0,w,c	;volatile
  1518  00136E  6E02               	movwf	(___lldiv@dividend+1)^0,c
  1519  001370  0EFE               	movlw	254
  1520  001372  204A               	addwfc	(_voltage+2)^0,w,c	;volatile
  1521  001374  6E03               	movwf	(___lldiv@dividend+2)^0,c
  1522  001376  0EFF               	movlw	255
  1523  001378  204B               	addwfc	(_voltage+3)^0,w,c	;volatile
  1524  00137A  6E04               	movwf	(___lldiv@dividend+3)^0,c
  1525  00137C  EC1B  F011         	call	___lldiv	;wreg free
  1526  001380  90D8               	bcf	status,0,c
  1527  001382  3601               	rlcf	?___lldiv^0,f,c
  1528  001384  3602               	rlcf	(?___lldiv+1)^0,f,c
  1529  001386  0E20               	movlw	low _SOC_LUT
  1530  001388  2401               	addwf	?___lldiv^0,w,c
  1531  00138A  6ED9               	movwf	fsr2l,c
  1532  00138C  0E0E               	movlw	high _SOC_LUT
  1533  00138E  2002               	addwfc	(?___lldiv+1)^0,w,c
  1534  001390  6EDA               	movwf	fsr2h,c
  1535  001392  006F FF78  F00E    	movff	postinc2,___awdiv@dividend
  1536  001398  006F FF74  F00F    	movff	postdec2,___awdiv@dividend+1
  1537  00139E  0E00               	movlw	0
  1538  0013A0  6E11               	movwf	(___awdiv@divisor+1)^0,c
  1539  0013A2  0E64               	movlw	100
  1540  0013A4  6E10               	movwf	___awdiv@divisor^0,c
  1541  0013A6  ECB9  F010         	call	___awdiv	;wreg free
  1542  0013AA  500E               	movf	?___awdiv^0,w,c
  1543  0013AC  6E57               	movwf	_charge^0,c
  1544  0013AE                     
  1545                           ;main.c: 572:                     print("Displaying data");
  1546  0013AE  0E36               	movlw	low STR_8
  1547  0013B0  6E05               	movwf	print@message^0,c
  1548  0013B2  0E10               	movlw	high STR_8
  1549  0013B4  6E06               	movwf	(print@message+1)^0,c
  1550  0013B6  ECD4  F011         	call	_print	;wreg free
  1551  0013BA                     l2195:
  1552                           
  1553                           ;main.c: 587:                 print("LED: BLUE");
  1554  0013BA  0E9B               	movlw	low STR_15
  1555  0013BC  6E05               	movwf	print@message^0,c
  1556  0013BE  0E10               	movlw	high STR_15
  1557  0013C0  6E06               	movwf	(print@message+1)^0,c
  1558  0013C2  ECD4  F011         	call	_print	;wreg free
  1559  0013C6                     
  1560                           ;main.c: 597:                 print("Buzzer: off");
  1561  0013C6  0E79               	movlw	low STR_5
  1562  0013C8  6E05               	movwf	print@message^0,c
  1563  0013CA  0E10               	movlw	high STR_5
  1564  0013CC  6E06               	movwf	(print@message+1)^0,c
  1565  0013CE  ECD4  F011         	call	_print	;wreg free
  1566  0013D2                     
  1567                           ;main.c: 602:                 if (Drive_Read())
  1568  0013D2  EC83  F012         	call	_Drive_Read	;wreg free
  1569  0013D6  0900               	iorlw	0
  1570  0013D8  B4D8               	btfsc	status,2,c
  1571  0013DA  EFF1  F009         	goto	u1561
  1572  0013DE  EFF3  F009         	goto	u1560
  1573  0013E2                     u1561:
  1574  0013E2  EF1B  F00A         	goto	l2215
  1575  0013E6                     u1560:
  1576  0013E6                     
  1577                           ;main.c: 603:                 {;main.c: 605:                     if(getErrorTolerance() 
      +                          == 0)
  1578  0013E6  ECAC  F012         	call	_getErrorTolerance	;wreg free
  1579  0013EA  0900               	iorlw	0
  1580  0013EC  A4D8               	btfss	status,2,c
  1581  0013EE  EFFB  F009         	goto	u1571
  1582  0013F2  EFFD  F009         	goto	u1570
  1583  0013F6                     u1571:
  1584  0013F6  EF15  F00A         	goto	l2213
  1585  0013FA                     u1570:
  1586  0013FA                     
  1587                           ;main.c: 606:                     {;main.c: 611:                         print("Buzzer: 
      +                          on");
  1588  0013FA  0E90               	movlw	low STR_6
  1589  0013FC  6E05               	movwf	print@message^0,c
  1590  0013FE  0E10               	movlw	high STR_6
  1591  001400  6E06               	movwf	(print@message+1)^0,c
  1592  001402  ECD4  F011         	call	_print	;wreg free
  1593  001406                     
  1594                           ;main.c: 612:                         _delay((unsigned long)((500)*(1000000/4000.0)));
  1595  001406  0EA3               	movlw	163
  1596  001408  6E32               	movwf	??_main^0,c
  1597  00140A  0E55               	movlw	85
  1598  00140C                     u1907:
  1599  00140C  2EE8               	decfsz	wreg,f,c
  1600  00140E  D7FE               	bra	u1907
  1601  001410  2E32               	decfsz	??_main^0,f,c
  1602  001412  D7FC               	bra	u1907
  1603  001414  F000               	nop	
  1604  001416                     
  1605                           ;main.c: 613:                         print("Buzzer: off");
  1606  001416  0E79               	movlw	low STR_5
  1607  001418  6E05               	movwf	print@message^0,c
  1608  00141A  0E10               	movlw	high STR_5
  1609  00141C  6E06               	movwf	(print@message+1)^0,c
  1610  00141E  ECD4  F011         	call	_print	;wreg free
  1611  001422                     
  1612                           ;main.c: 615:                         state = Drive;
  1613  001422  0E04               	movlw	4
  1614  001424  6E42               	movwf	main@state^0,c
  1615                           
  1616                           ;main.c: 616:                         break;
  1617  001426  EF92  F008         	goto	l2125
  1618  00142A                     l2213:
  1619                           
  1620                           ;main.c: 619:                     {;main.c: 620:                         state = Fault;
  1621  00142A  0E05               	movlw	5
  1622  00142C  6E42               	movwf	main@state^0,c
  1623                           
  1624                           ;main.c: 621:                         error_state = fromHV_Enabled;
  1625  00142E  0E03               	movlw	3
  1626  001430  6E47               	movwf	main@error_state^0,c
  1627                           
  1628                           ;main.c: 622:                         break;
  1629  001432  EF92  F008         	goto	l2125
  1630  001436                     l2215:
  1631                           
  1632                           ;main.c: 627:                 if(!HV_Read() | (getCapacitorVoltage() < 0x16))
  1633  001436  ECB0  F012         	call	_getCapacitorVoltage	;wreg free
  1634  00143A  6E32               	movwf	??_main^0,c
  1635  00143C  0E15               	movlw	21
  1636  00143E  6432               	cpfsgt	??_main^0,c
  1637  001440  EF24  F00A         	goto	u1581
  1638  001444  EF27  F00A         	goto	u1580
  1639  001448                     u1581:
  1640  001448  0E01               	movlw	1
  1641  00144A  EF28  F00A         	goto	u1582
  1642  00144E                     u1580:
  1643  00144E  0E00               	movlw	0
  1644  001450                     u1582:
  1645  001450  6E33               	movwf	(??_main+1)^0,c
  1646  001452  EC79  F012         	call	_HV_Read	;wreg free
  1647  001456  0900               	iorlw	0
  1648  001458  B4D8               	btfsc	status,2,c
  1649  00145A  EF31  F00A         	goto	u1591
  1650  00145E  EF34  F00A         	goto	u1590
  1651  001462                     u1591:
  1652  001462  0E01               	movlw	1
  1653  001464  EF35  F00A         	goto	u1592
  1654  001468                     u1590:
  1655  001468  0E00               	movlw	0
  1656  00146A                     u1592:
  1657  00146A  1033               	iorwf	(??_main+1)^0,w,c
  1658  00146C  A0E8               	btfss	wreg,0,c
  1659  00146E  EF3B  F00A         	goto	u1601
  1660  001472  EF3D  F00A         	goto	u1600
  1661  001476                     u1601:
  1662  001476  EF92  F008         	goto	l2125
  1663  00147A                     u1600:
  1664  00147A                     
  1665                           ;main.c: 628:                 {;main.c: 629:                     state = LV;
  1666  00147A  0E01               	movlw	1
  1667  00147C  6E42               	movwf	main@state^0,c
  1668                           
  1669                           ;main.c: 630:                     DriveTimeCount = 0;
  1670  00147E  0E00               	movlw	0
  1671  001480  6E3C               	movwf	main@DriveTimeCount^0,c
  1672  001482  0E00               	movlw	0
  1673  001484  6E3D               	movwf	(main@DriveTimeCount+1)^0,c
  1674  001486  0E00               	movlw	0
  1675  001488  6E3E               	movwf	(main@DriveTimeCount+2)^0,c
  1676  00148A  0E00               	movlw	0
  1677  00148C  6E3F               	movwf	(main@DriveTimeCount+3)^0,c
  1678                           
  1679                           ;main.c: 631:                     break;
  1680  00148E  EF92  F008         	goto	l2125
  1681  001492                     l2219:
  1682                           
  1683                           ; BSR set to: 0
  1684                           ;main.c: 637:                 if(firstDrive == 0) {
  1685  001492  504E               	movf	_firstDrive^0,w,c
  1686  001494  104F               	iorwf	(_firstDrive+1)^0,w,c
  1687  001496  A4D8               	btfss	status,2,c
  1688  001498  EF50  F00A         	goto	u1611
  1689  00149C  EF52  F00A         	goto	u1610
  1690  0014A0                     u1611:
  1691  0014A0  EF5E  F00A         	goto	l2225
  1692  0014A4                     u1610:
  1693  0014A4                     
  1694                           ; BSR set to: 0
  1695                           ;main.c: 641:                     print("DRIVE");
  1696  0014A4  0EBE               	movlw	low STR_19
  1697  0014A6  6E05               	movwf	print@message^0,c
  1698  0014A8  0E10               	movlw	high STR_19
  1699  0014AA  6E06               	movwf	(print@message+1)^0,c
  1700  0014AC  ECD4  F011         	call	_print	;wreg free
  1701  0014B0                     
  1702                           ;main.c: 642:                     firstDrive = 1;
  1703  0014B0  0E00               	movlw	0
  1704  0014B2  6E4F               	movwf	(_firstDrive+1)^0,c
  1705  0014B4  0E01               	movlw	1
  1706  0014B6  6E4E               	movwf	_firstDrive^0,c
  1707                           
  1708                           ;main.c: 643:                 } else {
  1709  0014B8  EFA2  F00A         	goto	l2231
  1710  0014BC                     l2225:
  1711                           
  1712                           ; BSR set to: 0
  1713                           ;main.c: 645:                     if(CURRENT < 2500) {
  1714  0014BC  BF67               	btfsc	(_CURRENT+3)& (0+255),7,b	;volatile
  1715  0014BE  EF6F  F00A         	goto	u1620
  1716  0014C2  5167               	movf	(_CURRENT+3)& (0+255),w,b	;volatile
  1717  0014C4  1166               	iorwf	(_CURRENT+2)& (0+255),w,b	;volatile
  1718  0014C6  E109               	bnz	u1621
  1719  0014C8  0EC4               	movlw	196
  1720  0014CA  5D64               	subwf	_CURRENT& (0+255),w,b	;volatile
  1721  0014CC  0E09               	movlw	9
  1722  0014CE  5965               	subwfb	(_CURRENT+1)& (0+255),w,b	;volatile
  1723  0014D0  B0D8               	btfsc	status,0,c
  1724  0014D2  EF6D  F00A         	goto	u1621
  1725  0014D6  EF6F  F00A         	goto	u1620
  1726  0014DA                     u1621:
  1727  0014DA  EF9C  F00A         	goto	l2229
  1728  0014DE                     u1620:
  1729  0014DE                     
  1730                           ; BSR set to: 0
  1731                           ;main.c: 646:                         charge = SOC_LUT[(voltage - 93400) / 100] / 100;
  1732  0014DE  0E64               	movlw	100
  1733  0014E0  6E05               	movwf	___lldiv@divisor^0,c
  1734  0014E2  0E00               	movlw	0
  1735  0014E4  6E06               	movwf	(___lldiv@divisor+1)^0,c
  1736  0014E6  0E00               	movlw	0
  1737  0014E8  6E07               	movwf	(___lldiv@divisor+2)^0,c
  1738  0014EA  0E00               	movlw	0
  1739  0014EC  6E08               	movwf	(___lldiv@divisor+3)^0,c
  1740  0014EE  0E28               	movlw	40
  1741  0014F0  2448               	addwf	_voltage^0,w,c	;volatile
  1742  0014F2  6E01               	movwf	___lldiv@dividend^0,c
  1743  0014F4  0E93               	movlw	147
  1744  0014F6  2049               	addwfc	(_voltage+1)^0,w,c	;volatile
  1745  0014F8  6E02               	movwf	(___lldiv@dividend+1)^0,c
  1746  0014FA  0EFE               	movlw	254
  1747  0014FC  204A               	addwfc	(_voltage+2)^0,w,c	;volatile
  1748  0014FE  6E03               	movwf	(___lldiv@dividend+2)^0,c
  1749  001500  0EFF               	movlw	255
  1750  001502  204B               	addwfc	(_voltage+3)^0,w,c	;volatile
  1751  001504  6E04               	movwf	(___lldiv@dividend+3)^0,c
  1752  001506  EC1B  F011         	call	___lldiv	;wreg free
  1753  00150A  90D8               	bcf	status,0,c
  1754  00150C  3601               	rlcf	?___lldiv^0,f,c
  1755  00150E  3602               	rlcf	(?___lldiv+1)^0,f,c
  1756  001510  0E20               	movlw	low _SOC_LUT
  1757  001512  2401               	addwf	?___lldiv^0,w,c
  1758  001514  6ED9               	movwf	fsr2l,c
  1759  001516  0E0E               	movlw	high _SOC_LUT
  1760  001518  2002               	addwfc	(?___lldiv+1)^0,w,c
  1761  00151A  6EDA               	movwf	fsr2h,c
  1762  00151C  006F FF78  F00E    	movff	postinc2,___awdiv@dividend
  1763  001522  006F FF74  F00F    	movff	postdec2,___awdiv@dividend+1
  1764  001528  0E00               	movlw	0
  1765  00152A  6E11               	movwf	(___awdiv@divisor+1)^0,c
  1766  00152C  0E64               	movlw	100
  1767  00152E  6E10               	movwf	___awdiv@divisor^0,c
  1768  001530  ECB9  F010         	call	___awdiv	;wreg free
  1769  001534  500E               	movf	?___awdiv^0,w,c
  1770  001536  6E57               	movwf	_charge^0,c
  1771  001538                     l2229:
  1772                           
  1773                           ;main.c: 649:                     print("Display data");
  1774  001538  0E60               	movlw	low STR_20
  1775  00153A  6E05               	movwf	print@message^0,c
  1776  00153C  0E10               	movlw	high STR_20
  1777  00153E  6E06               	movwf	(print@message+1)^0,c
  1778  001540  ECD4  F011         	call	_print	;wreg free
  1779  001544                     l2231:
  1780                           
  1781                           ;main.c: 659:                 print("LED: GREEN");
  1782  001544  0E85               	movlw	low STR_21
  1783  001546  6E05               	movwf	print@message^0,c
  1784  001548  0E10               	movlw	high STR_21
  1785  00154A  6E06               	movwf	(print@message+1)^0,c
  1786  00154C  ECD4  F011         	call	_print	;wreg free
  1787  001550                     
  1788                           ;main.c: 661:                 uint8_t ACK = 0xFF;
  1789  001550  683B               	setf	main@ACK^0,c
  1790  001552                     
  1791                           ;main.c: 663:                 DriveTimeCount++;
  1792  001552  0E01               	movlw	1
  1793  001554  263C               	addwf	main@DriveTimeCount^0,f,c
  1794  001556  0E00               	movlw	0
  1795  001558  223D               	addwfc	(main@DriveTimeCount+1)^0,f,c
  1796  00155A  223E               	addwfc	(main@DriveTimeCount+2)^0,f,c
  1797  00155C  223F               	addwfc	(main@DriveTimeCount+3)^0,f,c
  1798  00155E                     
  1799                           ;main.c: 664:                 if (DriveTimeCount > 100)
  1800  00155E  503F               	movf	(main@DriveTimeCount+3)^0,w,c
  1801  001560  103E               	iorwf	(main@DriveTimeCount+2)^0,w,c
  1802  001562  103D               	iorwf	(main@DriveTimeCount+1)^0,w,c
  1803  001564  E109               	bnz	u1630
  1804  001566  0E65               	movlw	101
  1805  001568  5C3C               	subwf	main@DriveTimeCount^0,w,c
  1806  00156A  A0D8               	btfss	status,0,c
  1807  00156C  EFBA  F00A         	goto	u1631
  1808  001570  EFBC  F00A         	goto	u1630
  1809  001574                     u1631:
  1810  001574  EFC7  F00A         	goto	l2243
  1811  001578                     u1630:
  1812  001578                     
  1813                           ;main.c: 665:                 {;main.c: 666:                     DriveTimeCount = 0;
  1814  001578  0E00               	movlw	0
  1815  00157A  6E3C               	movwf	main@DriveTimeCount^0,c
  1816  00157C  0E00               	movlw	0
  1817  00157E  6E3D               	movwf	(main@DriveTimeCount+1)^0,c
  1818  001580  0E00               	movlw	0
  1819  001582  6E3E               	movwf	(main@DriveTimeCount+2)^0,c
  1820  001584  0E00               	movlw	0
  1821  001586  6E3F               	movwf	(main@DriveTimeCount+3)^0,c
  1822  001588                     
  1823                           ;main.c: 667:                     ACK = getAckRx();
  1824  001588  ECB2  F012         	call	_getAckRx	;wreg free
  1825  00158C  6E3B               	movwf	main@ACK^0,c
  1826  00158E                     l2243:
  1827                           
  1828                           ;main.c: 670:                 uint8_t ABS_Motor_RPM = getABSMotorRPM();
  1829  00158E  ECB4  F012         	call	_getABSMotorRPM	;wreg free
  1830  001592  6E35               	movwf	main@ABS_Motor_RPM^0,c
  1831                           
  1832                           ;main.c: 672:                 uint16_t Throttle_Total = 0x0;
  1833  001594  0E00               	movlw	0
  1834  001596  6E41               	movwf	(main@Throttle_Total+1)^0,c
  1835  001598  0E00               	movlw	0
  1836  00159A  6E40               	movwf	main@Throttle_Total^0,c
  1837  00159C                     
  1838                           ;main.c: 673:                 Throttle_Total |= getPedalHigh() << 8;
  1839  00159C  ECAA  F012         	call	_getPedalHigh	;wreg free
  1840  0015A0  6E32               	movwf	??_main^0,c
  1841  0015A2  5032               	movf	??_main^0,w,c
  1842  0015A4  6E34               	movwf	(??_main+2)^0,c
  1843  0015A6  6A33               	clrf	(??_main+1)^0,c
  1844  0015A8  5033               	movf	(??_main+1)^0,w,c
  1845  0015AA  1240               	iorwf	main@Throttle_Total^0,f,c
  1846  0015AC  5034               	movf	(??_main+2)^0,w,c
  1847  0015AE  1241               	iorwf	(main@Throttle_Total+1)^0,f,c
  1848  0015B0                     
  1849                           ;main.c: 674:                 Throttle_Total |= getPedalLow();
  1850  0015B0  ECA8  F012         	call	_getPedalLow	;wreg free
  1851  0015B4  6E32               	movwf	??_main^0,c
  1852  0015B6  5032               	movf	??_main^0,w,c
  1853  0015B8  1240               	iorwf	main@Throttle_Total^0,f,c
  1854  0015BA                     
  1855                           ;main.c: 675:                 Throttle_Total = (double)Throttle_Total * THROTTLE_MULTIPL
      +                          IER;
  1856  0015BA  C076  F013         	movff	_THROTTLE_MULTIPLIER,___flmul@a	;volatile
  1857  0015BE  C077  F014         	movff	_THROTTLE_MULTIPLIER+1,___flmul@a+1	;volatile
  1858  0015C2  C078  F015         	movff	_THROTTLE_MULTIPLIER+2,___flmul@a+2	;volatile
  1859  0015C6  C079  F016         	movff	_THROTTLE_MULTIPLIER+3,___flmul@a+3	;volatile
  1860  0015CA  C040  F001         	movff	main@Throttle_Total,___xxtofl@val
  1861  0015CE  C041  F002         	movff	main@Throttle_Total+1,___xxtofl@val+1
  1862  0015D2  6A03               	clrf	(___xxtofl@val+2)^0,c
  1863  0015D4  6A04               	clrf	(___xxtofl@val+3)^0,c
  1864  0015D6  0E00               	movlw	0
  1865  0015D8  EC5C  F00F         	call	___xxtofl
  1866  0015DC  C001  F00F         	movff	?___xxtofl,___flmul@b
  1867  0015E0  C002  F010         	movff	?___xxtofl+1,___flmul@b+1
  1868  0015E4  C003  F011         	movff	?___xxtofl+2,___flmul@b+2
  1869  0015E8  C004  F012         	movff	?___xxtofl+3,___flmul@b+3
  1870  0015EC  EC45  F00C         	call	___flmul	;wreg free
  1871  0015F0  C00F  F028         	movff	?___flmul,___fltol@f1
  1872  0015F4  C010  F029         	movff	?___flmul+1,___fltol@f1+1
  1873  0015F8  C011  F02A         	movff	?___flmul+2,___fltol@f1+2
  1874  0015FC  C012  F02B         	movff	?___flmul+3,___fltol@f1+3
  1875  001600  EC36  F010         	call	___fltol	;wreg free
  1876  001604  C028  F040         	movff	?___fltol,main@Throttle_Total
  1877  001608  C029  F041         	movff	?___fltol+1,main@Throttle_Total+1
  1878  00160C                     
  1879                           ;main.c: 677:                 uint8_t Throttle_High = Throttle_Total >> 8;
  1880  00160C  5041               	movf	(main@Throttle_Total+1)^0,w,c
  1881  00160E  6E36               	movwf	main@Throttle_High^0,c
  1882  001610                     
  1883                           ;main.c: 678:                 uint8_t Throttle_Low = Throttle_Total & 0x00FF;
  1884  001610  C040  F037         	movff	main@Throttle_Total,main@Throttle_Low
  1885  001614                     
  1886                           ;main.c: 689:                 if (!HV_Read()) {
  1887  001614  EC79  F012         	call	_HV_Read	;wreg free
  1888  001618  0900               	iorlw	0
  1889  00161A  A4D8               	btfss	status,2,c
  1890  00161C  EF12  F00B         	goto	u1641
  1891  001620  EF14  F00B         	goto	u1640
  1892  001624                     u1641:
  1893  001624  EF16  F00B         	goto	l2259
  1894  001628                     u1640:
  1895  001628                     
  1896                           ;main.c: 692:                     state = LV;
  1897  001628  0E01               	movlw	1
  1898  00162A  6E42               	movwf	main@state^0,c
  1899  00162C                     l2259:
  1900                           
  1901                           ;main.c: 696:                 if (!Drive_Read()) {
  1902  00162C  EC83  F012         	call	_Drive_Read	;wreg free
  1903  001630  0900               	iorlw	0
  1904  001632  A4D8               	btfss	status,2,c
  1905  001634  EF1E  F00B         	goto	u1651
  1906  001638  EF20  F00B         	goto	u1650
  1907  00163C                     u1651:
  1908  00163C  EF22  F00B         	goto	l2263
  1909  001640                     u1650:
  1910  001640                     
  1911                           ;main.c: 697:                     state = HV_Enabled;
  1912  001640  0E03               	movlw	3
  1913  001642  6E42               	movwf	main@state^0,c
  1914  001644                     l2263:
  1915                           
  1916                           ;main.c: 701:                 if ((ACK != 0xFF) |
  1917  001644  ECAE  F012         	call	_getCurtisHeartBeatCheck	;wreg free
  1918  001648  0900               	iorlw	0
  1919  00164A  B4D8               	btfsc	status,2,c
  1920  00164C  EF2A  F00B         	goto	u1661
  1921  001650  EF2D  F00B         	goto	u1660
  1922  001654                     u1661:
  1923  001654  0E01               	movlw	1
  1924  001656  EF2E  F00B         	goto	u1662
  1925  00165A                     u1660:
  1926  00165A  0E00               	movlw	0
  1927  00165C                     u1662:
  1928  00165C  6E32               	movwf	??_main^0,c
  1929  00165E  283B               	incf	main@ACK^0,w,c
  1930  001660  A4D8               	btfss	status,2,c
  1931  001662  EF35  F00B         	goto	u1671
  1932  001666  EF38  F00B         	goto	u1670
  1933  00166A                     u1671:
  1934  00166A  0E01               	movlw	1
  1935  00166C  EF39  F00B         	goto	u1672
  1936  001670                     u1670:
  1937  001670  0E00               	movlw	0
  1938  001672                     u1672:
  1939  001672  1032               	iorwf	??_main^0,w,c
  1940  001674  A0E8               	btfss	wreg,0,c
  1941  001676  EF3F  F00B         	goto	u1681
  1942  00167A  EF41  F00B         	goto	u1680
  1943  00167E                     u1681:
  1944  00167E  EF4F  F00B         	goto	l2267
  1945  001682                     u1680:
  1946  001682                     
  1947                           ;main.c: 703:                 {;main.c: 705:                     state = Fault;
  1948  001682  0E05               	movlw	5
  1949  001684  6E42               	movwf	main@state^0,c
  1950                           
  1951                           ;main.c: 706:                     error_state = fromDrive;
  1952  001686  0E04               	movlw	4
  1953  001688  6E47               	movwf	main@error_state^0,c
  1954                           
  1955                           ;main.c: 707:                     DriveTimeCount = 0;
  1956  00168A  0E00               	movlw	0
  1957  00168C  6E3C               	movwf	main@DriveTimeCount^0,c
  1958  00168E  0E00               	movlw	0
  1959  001690  6E3D               	movwf	(main@DriveTimeCount+1)^0,c
  1960  001692  0E00               	movlw	0
  1961  001694  6E3E               	movwf	(main@DriveTimeCount+2)^0,c
  1962  001696  0E00               	movlw	0
  1963  001698  6E3F               	movwf	(main@DriveTimeCount+3)^0,c
  1964                           
  1965                           ;main.c: 708:                     break;
  1966  00169A  EF92  F008         	goto	l2125
  1967  00169E                     l2267:
  1968                           
  1969                           ;main.c: 711:                 previous_state = Drive;
  1970  00169E  0E00               	movlw	0
  1971  0016A0  0100               	movlb	0	; () banked
  1972  0016A2  6F7B               	movwf	(_previous_state+1)& (0+255),b	;volatile
  1973  0016A4  0E04               	movlw	4
  1974  0016A6  6F7A               	movwf	_previous_state& (0+255),b	;volatile
  1975                           
  1976                           ;main.c: 712:             break;
  1977  0016A8  EF92  F008         	goto	l2125
  1978  0016AC                     l2269:
  1979                           
  1980                           ; BSR set to: 0
  1981                           ;main.c: 730:                 print("LED: RED");
  1982  0016AC  0EA5               	movlw	low STR_22
  1983  0016AE  6E05               	movwf	print@message^0,c
  1984  0016B0  0E10               	movlw	high STR_22
  1985  0016B2  6E06               	movwf	(print@message+1)^0,c
  1986  0016B4  ECD4  F011         	call	_print	;wreg free
  1987  0016B8                     
  1988                           ;main.c: 731:                 _delay((unsigned long)((1000)*(1000000/4000.0)));
  1989  0016B8  0E02               	movlw	2
  1990  0016BA  6E33               	movwf	(??_main+1)^0,c
  1991  0016BC  0E45               	movlw	69
  1992  0016BE  6E32               	movwf	??_main^0,c
  1993  0016C0  0EAA               	movlw	170
  1994  0016C2                     u1917:
  1995  0016C2  2EE8               	decfsz	wreg,f,c
  1996  0016C4  D7FE               	bra	u1917
  1997  0016C6  2E32               	decfsz	??_main^0,f,c
  1998  0016C8  D7FC               	bra	u1917
  1999  0016CA  2E33               	decfsz	(??_main+1)^0,f,c
  2000  0016CC  D7FA               	bra	u1917
  2001  0016CE                     
  2002                           ;main.c: 732:                 print("LED: OFF");
  2003  0016CE  0EAE               	movlw	low STR_23
  2004  0016D0  6E05               	movwf	print@message^0,c
  2005  0016D2  0E10               	movlw	high STR_23
  2006  0016D4  6E06               	movwf	(print@message+1)^0,c
  2007  0016D6  ECD4  F011         	call	_print	;wreg free
  2008                           
  2009                           ;main.c: 733:                 _delay((unsigned long)((1000)*(1000000/4000.0)));
  2010  0016DA  0E02               	movlw	2
  2011  0016DC  6E33               	movwf	(??_main+1)^0,c
  2012  0016DE  0E45               	movlw	69
  2013  0016E0  6E32               	movwf	??_main^0,c
  2014  0016E2  0EAA               	movlw	170
  2015  0016E4                     u1927:
  2016  0016E4  2EE8               	decfsz	wreg,f,c
  2017  0016E6  D7FE               	bra	u1927
  2018  0016E8  2E32               	decfsz	??_main^0,f,c
  2019  0016EA  D7FC               	bra	u1927
  2020  0016EC  2E33               	decfsz	(??_main+1)^0,f,c
  2021  0016EE  D7FA               	bra	u1927
  2022  0016F0                     
  2023                           ;main.c: 736:                 print("Buzzer: off");
  2024  0016F0  0E79               	movlw	low STR_5
  2025  0016F2  6E05               	movwf	print@message^0,c
  2026  0016F4  0E10               	movlw	high STR_5
  2027  0016F6  6E06               	movwf	(print@message+1)^0,c
  2028  0016F8  ECD4  F011         	call	_print	;wreg free
  2029  0016FC                     
  2030                           ;main.c: 747:                 if(error_state == fromBMS) {
  2031  0016FC  0E06               	movlw	6
  2032  0016FE  1847               	xorwf	main@error_state^0,w,c
  2033  001700  A4D8               	btfss	status,2,c
  2034  001702  EF85  F00B         	goto	u1691
  2035  001706  EF87  F00B         	goto	u1690
  2036  00170A                     u1691:
  2037  00170A  EF8D  F00B         	goto	l2281
  2038  00170E                     u1690:
  2039  00170E                     
  2040                           ;main.c: 753:                     print("error state: fromBMS");
  2041  00170E  0E21               	movlw	low STR_25
  2042  001710  6E05               	movwf	print@message^0,c
  2043  001712  0E10               	movlw	high STR_25
  2044  001714  6E06               	movwf	(print@message+1)^0,c
  2045  001716  ECD4  F011         	call	_print	;wreg free
  2046  00171A                     l2281:
  2047                           
  2048                           ;main.c: 757:                 if(error_state == fromLV)
  2049  00171A  0447               	decf	main@error_state^0,w,c
  2050  00171C  A4D8               	btfss	status,2,c
  2051  00171E  EF93  F00B         	goto	u1701
  2052  001722  EF95  F00B         	goto	u1700
  2053  001726                     u1701:
  2054  001726  EFA5  F00B         	goto	l2287
  2055  00172A                     u1700:
  2056  00172A                     
  2057                           ;main.c: 758:                 {;main.c: 759:                     if(!Drive_Read())
  2058  00172A  EC83  F012         	call	_Drive_Read	;wreg free
  2059  00172E  0900               	iorlw	0
  2060  001730  A4D8               	btfss	status,2,c
  2061  001732  EF9D  F00B         	goto	u1711
  2062  001736  EF9F  F00B         	goto	u1710
  2063  00173A                     u1711:
  2064  00173A  EF92  F008         	goto	l2125
  2065  00173E                     u1710:
  2066  00173E                     l2285:
  2067                           
  2068                           ;main.c: 760:                     {;main.c: 761:                         state = LV;
  2069  00173E  0E01               	movlw	1
  2070  001740  6E42               	movwf	main@state^0,c
  2071                           
  2072                           ;main.c: 762:                         error_state = OK;
  2073  001742  0E00               	movlw	0
  2074  001744  6E47               	movwf	main@error_state^0,c
  2075  001746  EF92  F008         	goto	l2125
  2076  00174A                     l2287:
  2077  00174A  0E02               	movlw	2
  2078  00174C  1847               	xorwf	main@error_state^0,w,c
  2079  00174E  A4D8               	btfss	status,2,c
  2080  001750  EFAC  F00B         	goto	u1721
  2081  001754  EFAE  F00B         	goto	u1720
  2082  001758                     u1721:
  2083  001758  EFC4  F00B         	goto	l2295
  2084  00175C                     u1720:
  2085  00175C                     
  2086                           ;main.c: 766:                 {;main.c: 767:                     if(!Drive_Read() && !HV
      +                          _Read())
  2087  00175C  EC83  F012         	call	_Drive_Read	;wreg free
  2088  001760  0900               	iorlw	0
  2089  001762  A4D8               	btfss	status,2,c
  2090  001764  EFB6  F00B         	goto	u1731
  2091  001768  EFB8  F00B         	goto	u1730
  2092  00176C                     u1731:
  2093  00176C  EF92  F008         	goto	l2125
  2094  001770                     u1730:
  2095  001770  EC79  F012         	call	_HV_Read	;wreg free
  2096  001774  0900               	iorlw	0
  2097  001776  A4D8               	btfss	status,2,c
  2098  001778  EFC0  F00B         	goto	u1741
  2099  00177C  EFC2  F00B         	goto	u1740
  2100  001780                     u1741:
  2101  001780  EF92  F008         	goto	l2125
  2102  001784                     u1740:
  2103  001784  EF9F  F00B         	goto	l2285
  2104  001788                     l2295:
  2105  001788  0E03               	movlw	3
  2106  00178A  1847               	xorwf	main@error_state^0,w,c
  2107  00178C  A4D8               	btfss	status,2,c
  2108  00178E  EFCB  F00B         	goto	u1751
  2109  001792  EFCD  F00B         	goto	u1750
  2110  001796                     u1751:
  2111  001796  EFDD  F00B         	goto	l2301
  2112  00179A                     u1750:
  2113  00179A                     
  2114                           ;main.c: 774:                 {;main.c: 775:                     if(!Drive_Read())
  2115  00179A  EC83  F012         	call	_Drive_Read	;wreg free
  2116  00179E  0900               	iorlw	0
  2117  0017A0  A4D8               	btfss	status,2,c
  2118  0017A2  EFD5  F00B         	goto	u1761
  2119  0017A6  EFD7  F00B         	goto	u1760
  2120  0017AA                     u1761:
  2121  0017AA  EF92  F008         	goto	l2125
  2122  0017AE                     u1760:
  2123  0017AE                     l2299:
  2124                           
  2125                           ;main.c: 776:                     {;main.c: 777:                         state = HV_Enab
      +                          led;
  2126  0017AE  0E03               	movlw	3
  2127  0017B0  6E42               	movwf	main@state^0,c
  2128                           
  2129                           ;main.c: 778:                         error_state = OK;
  2130  0017B2  0E00               	movlw	0
  2131  0017B4  6E47               	movwf	main@error_state^0,c
  2132  0017B6  EF92  F008         	goto	l2125
  2133  0017BA                     l2301:
  2134  0017BA  0E04               	movlw	4
  2135  0017BC  1847               	xorwf	main@error_state^0,w,c
  2136  0017BE  A4D8               	btfss	status,2,c
  2137  0017C0  EFE4  F00B         	goto	u1771
  2138  0017C4  EFE6  F00B         	goto	u1770
  2139  0017C8                     u1771:
  2140  0017C8  EFFE  F00B         	goto	l2311
  2141  0017CC                     u1770:
  2142  0017CC                     
  2143                           ;main.c: 782:                 {;main.c: 788:                     if((getCurtisHeartBeatC
      +                          heck()))
  2144  0017CC  ECAE  F012         	call	_getCurtisHeartBeatCheck	;wreg free
  2145  0017D0  0900               	iorlw	0
  2146  0017D2  B4D8               	btfsc	status,2,c
  2147  0017D4  EFEE  F00B         	goto	u1781
  2148  0017D8  EFF0  F00B         	goto	u1780
  2149  0017DC                     u1781:
  2150  0017DC  EFF2  F00B         	goto	l2307
  2151  0017E0                     u1780:
  2152  0017E0  EF9F  F00B         	goto	l2285
  2153  0017E4                     l2307:
  2154  0017E4  ECB2  F012         	call	_getAckRx	;wreg free
  2155  0017E8  0AFF               	xorlw	255
  2156  0017EA  A4D8               	btfss	status,2,c
  2157  0017EC  EFFA  F00B         	goto	u1791
  2158  0017F0  EFFC  F00B         	goto	u1790
  2159  0017F4                     u1791:
  2160  0017F4  EF92  F008         	goto	l2125
  2161  0017F8                     u1790:
  2162  0017F8  EFD7  F00B         	goto	l2299
  2163  0017FC                     l2311:
  2164  0017FC  0E07               	movlw	7
  2165  0017FE  1847               	xorwf	main@error_state^0,w,c
  2166  001800  A4D8               	btfss	status,2,c
  2167  001802  EF05  F00C         	goto	u1801
  2168  001806  EF07  F00C         	goto	u1800
  2169  00180A                     u1801:
  2170  00180A  EF0B  F00C         	goto	l2315
  2171  00180E                     u1800:
  2172  00180E                     l2313:
  2173                           
  2174                           ;main.c: 800:                 {;main.c: 801:                     state = Fault;
  2175  00180E  0E05               	movlw	5
  2176  001810  6E42               	movwf	main@state^0,c
  2177                           
  2178                           ;main.c: 802:                 }
  2179  001812  EF92  F008         	goto	l2125
  2180  001816                     l2315:
  2181  001816  0E06               	movlw	6
  2182  001818  1847               	xorwf	main@error_state^0,w,c
  2183  00181A  A4D8               	btfss	status,2,c
  2184  00181C  EF12  F00C         	goto	u1811
  2185  001820  EF14  F00C         	goto	u1810
  2186  001824                     u1811:
  2187  001824  EF92  F008         	goto	l2125
  2188  001828                     u1810:
  2189  001828  EF07  F00C         	goto	l2313
  2190  00182C                     l2319:
  2191                           
  2192                           ; BSR set to: 0
  2193                           ;main.c: 813:                 print("LED: OFF");
  2194  00182C  0EAE               	movlw	low STR_23
  2195  00182E  6E05               	movwf	print@message^0,c
  2196  001830  0E10               	movlw	high STR_23
  2197  001832  6E06               	movwf	(print@message+1)^0,c
  2198  001834  ECD4  F011         	call	_print	;wreg free
  2199                           
  2200                           ;main.c: 815:         }
  2201  001838  EF92  F008         	goto	l2125
  2202  00183C                     l2321:
  2203                           
  2204                           ; BSR set to: 0
  2205  00183C  5042               	movf	main@state^0,w,c
  2206  00183E  6E32               	movwf	??_main^0,c
  2207  001840  6A33               	clrf	(??_main+1)^0,c
  2208                           
  2209                           ; Switch on 2 bytes has been partitioned into a top level switch of size 1, and 1 sub-sw
      +                          itches
  2210                           ; Switch size 1, requested type "simple"
  2211                           ; Number of cases is 1, Range of values is 0 to 0
  2212                           ; switch strategies available:
  2213                           ; Name         Instructions Cycles
  2214                           ; simple_byte            4     3 (average)
  2215                           ;	Chosen strategy is simple_byte
  2216  001842  5033               	movf	(??_main+1)^0,w,c
  2217  001844  0A00               	xorlw	0	; case 0
  2218  001846  B4D8               	btfsc	status,2,c
  2219  001848  EF28  F00C         	goto	l2383
  2220  00184C  EF16  F00C         	goto	l2319
  2221  001850                     l2383:
  2222                           
  2223                           ; BSR set to: 0
  2224                           ; Switch size 1, requested type "simple"
  2225                           ; Number of cases is 6, Range of values is 0 to 5
  2226                           ; switch strategies available:
  2227                           ; Name         Instructions Cycles
  2228                           ; simple_byte           19    10 (average)
  2229                           ;	Chosen strategy is simple_byte
  2230  001850  5032               	movf	??_main^0,w,c
  2231  001852  0A00               	xorlw	0	; case 0
  2232  001854  B4D8               	btfsc	status,2,c
  2233  001856  EFC4  F008         	goto	l2139
  2234  00185A  0A01               	xorlw	1	; case 1
  2235  00185C  B4D8               	btfsc	status,2,c
  2236  00185E  EFE8  F008         	goto	l2149
  2237  001862  0A03               	xorlw	3	; case 2
  2238  001864  B4D8               	btfsc	status,2,c
  2239  001866  EF5A  F009         	goto	l2171
  2240  00186A  0A01               	xorlw	1	; case 3
  2241  00186C  B4D8               	btfsc	status,2,c
  2242  00186E  EF95  F009         	goto	l2185
  2243  001872  0A07               	xorlw	7	; case 4
  2244  001874  B4D8               	btfsc	status,2,c
  2245  001876  EF49  F00A         	goto	l2219
  2246  00187A  0A01               	xorlw	1	; case 5
  2247  00187C  B4D8               	btfsc	status,2,c
  2248  00187E  EF56  F00B         	goto	l2269
  2249  001882  EF16  F00C         	goto	l2319
  2250  001886  EFFE  F07F         	goto	start
  2251  00188A                     __end_of_main:
  2252                           	callstack 0
  2253                           
  2254 ;; *************** function _print *****************
  2255 ;; Defined at:
  2256 ;;		line 161 in file "main.c"
  2257 ;; Parameters:    Size  Location     Type
  2258 ;;  message         2    4[COMRAM] PTR unsigned char 
  2259 ;;		 -> STR_26(9), STR_25(21), STR_24(12), STR_23(9), 
  2260 ;;		 -> STR_22(9), STR_21(11), STR_20(13), STR_19(6), 
  2261 ;;		 -> STR_18(12), STR_17(11), STR_16(12), STR_15(10), 
  2262 ;;		 -> STR_14(16), STR_13(3), STR_12(13), STR_11(7), 
  2263 ;;		 -> STR_10(12), STR_9(12), STR_8(16), STR_7(3), 
  2264 ;;		 -> STR_6(11), STR_5(12), STR_4(13), STR_3(6), 
  2265 ;;		 -> STR_2(6), 
  2266 ;; Auto vars:     Size  Location     Type
  2267 ;;  i               1    8[COMRAM] unsigned char 
  2268 ;; Return value:  Size  Location     Type
  2269 ;;                  1    wreg      void 
  2270 ;; Registers used:
  2271 ;;		wreg, status,2, status,0, tblptrl, tblptrh, tblptru, cstack
  2272 ;; Tracked objects:
  2273 ;;		On entry : 0/0
  2274 ;;		On exit  : 0/0
  2275 ;;		Unchanged: 0/0
  2276 ;; Data sizes:     COMRAM   BANK0   BANK1   BANK2   BANK3   BANK4   BANK5   BANK6   BANK7   BANK8   BANK9  BANK10  BANK1
      +1  BANK12  BANK13  BANK14  BANK15
  2277 ;;      Params:         2       0       0       0       0       0       0       0       0       0       0       0       
      +0       0       0       0       0
  2278 ;;      Locals:         1       0       0       0       0       0       0       0       0       0       0       0       
      +0       0       0       0       0
  2279 ;;      Temps:          2       0       0       0       0       0       0       0       0       0       0       0       
      +0       0       0       0       0
  2280 ;;      Totals:         5       0       0       0       0       0       0       0       0       0       0       0       
      +0       0       0       0       0
  2281 ;;Total ram usage:        5 bytes
  2282 ;; Hardware stack levels used: 1
  2283 ;; Hardware stack levels required when called: 1
  2284 ;; This function calls:
  2285 ;;		_UART1_Write
  2286 ;;		_strlen
  2287 ;; This function is called by:
  2288 ;;		_main
  2289 ;; This function uses a non-reentrant model
  2290 ;;
  2291                           
  2292                           	psect	text1
  2293  0023A8                     __ptext1:
  2294                           	callstack 0
  2295  0023A8                     _print:
  2296                           	callstack 29
  2297  0023A8                     
  2298                           ;main.c: 162:     uint8_t i;;main.c: 163:     for (i = 0; i < strlen(message); i++) {
  2299  0023A8  0E00               	movlw	0
  2300  0023AA  6E09               	movwf	print@i^0,c
  2301  0023AC  EFEA  F011         	goto	l1807
  2302  0023B0                     l1803:
  2303                           
  2304                           ;main.c: 164:         UART1_Write(message[i]);
  2305  0023B0  5009               	movf	print@i^0,w,c
  2306  0023B2  2405               	addwf	print@message^0,w,c
  2307  0023B4  6E07               	movwf	??_print^0,c
  2308  0023B6  0E00               	movlw	0
  2309  0023B8  2006               	addwfc	(print@message+1)^0,w,c
  2310  0023BA  6E08               	movwf	(??_print+1)^0,c
  2311  0023BC  0060  F01F  FFF6   	movff	??_print,tblptrl
  2312  0023C2  0060  F023  FFF7   	movff	??_print+1,tblptrh
  2313  0023C8                     	if	1	;Program memory is < 0x10000, tblptru is always zero
  2314  0023C8  6AF8               	clrf	tblptru,c
  2315  0023CA                     	endif
  2316  0023CA                     	if	0	;tblptru may be non-zero
  2317  0023CA                     	endif
  2318  0023CA  0008               	tblrd		*
  2319  0023CC  50F5               	movf	tablat,w,c
  2320  0023CE  EC60  F012         	call	_UART1_Write
  2321  0023D2                     
  2322                           ;main.c: 165:     }
  2323  0023D2  2A09               	incf	print@i^0,f,c
  2324  0023D4                     l1807:
  2325  0023D4  C005  F001         	movff	print@message,strlen@s
  2326  0023D8  C006  F002         	movff	print@message+1,strlen@s+1
  2327  0023DC  EC2E  F012         	call	_strlen	;wreg free
  2328  0023E0  5009               	movf	print@i^0,w,c
  2329  0023E2  6E07               	movwf	??_print^0,c
  2330  0023E4  6A08               	clrf	(??_print+1)^0,c
  2331  0023E6  5001               	movf	?_strlen^0,w,c
  2332  0023E8  5C07               	subwf	??_print^0,w,c
  2333  0023EA  5002               	movf	(?_strlen+1)^0,w,c
  2334  0023EC  5808               	subwfb	(??_print+1)^0,w,c
  2335  0023EE  A0D8               	btfss	status,0,c
  2336  0023F0  EFFC  F011         	goto	u981
  2337  0023F4  EFFE  F011         	goto	u980
  2338  0023F8                     u981:
  2339  0023F8  EFD8  F011         	goto	l1803
  2340  0023FC                     u980:
  2341  0023FC                     
  2342                           ;main.c: 166:     UART1_Write("    ");
  2343  0023FC  0ED0               	movlw	STR_1& (0+255)
  2344  0023FE  EC60  F012         	call	_UART1_Write
  2345  002402  0012               	return		;funcret
  2346  002404                     __end_of_print:
  2347                           	callstack 0
  2348                           
  2349 ;; *************** function _strlen *****************
  2350 ;; Defined at:
  2351 ;;		line 5 in file "C:\Program Files\Microchip\xc8\v2.32\pic\sources\c99\common\strlen.c"
  2352 ;; Parameters:    Size  Location     Type
  2353 ;;  s               2    0[COMRAM] PTR const unsigned char 
  2354 ;;		 -> STR_26(9), STR_25(21), STR_24(12), STR_23(9), 
  2355 ;;		 -> STR_22(9), STR_21(11), STR_20(13), STR_19(6), 
  2356 ;;		 -> STR_18(12), STR_17(11), STR_16(12), STR_15(10), 
  2357 ;;		 -> STR_14(16), STR_13(3), STR_12(13), STR_11(7), 
  2358 ;;		 -> STR_10(12), STR_9(12), STR_8(16), STR_7(3), 
  2359 ;;		 -> STR_6(11), STR_5(12), STR_4(13), STR_3(6), 
  2360 ;;		 -> STR_2(6), 
  2361 ;; Auto vars:     Size  Location     Type
  2362 ;;  a               2    2[COMRAM] PTR const unsigned char 
  2363 ;;		 -> STR_26(9), STR_25(21), STR_24(12), STR_23(9), 
  2364 ;;		 -> STR_22(9), STR_21(11), STR_20(13), STR_19(6), 
  2365 ;;		 -> STR_18(12), STR_17(11), STR_16(12), STR_15(10), 
  2366 ;;		 -> STR_14(16), STR_13(3), STR_12(13), STR_11(7), 
  2367 ;;		 -> STR_10(12), STR_9(12), STR_8(16), STR_7(3), 
  2368 ;;		 -> STR_6(11), STR_5(12), STR_4(13), STR_3(6), 
  2369 ;;		 -> STR_2(6), 
  2370 ;; Return value:  Size  Location     Type
  2371 ;;                  2    0[COMRAM] unsigned int 
  2372 ;; Registers used:
  2373 ;;		wreg, status,2, status,0, tblptrl, tblptrh, tblptru
  2374 ;; Tracked objects:
  2375 ;;		On entry : 0/0
  2376 ;;		On exit  : 0/0
  2377 ;;		Unchanged: 0/0
  2378 ;; Data sizes:     COMRAM   BANK0   BANK1   BANK2   BANK3   BANK4   BANK5   BANK6   BANK7   BANK8   BANK9  BANK10  BANK1
      +1  BANK12  BANK13  BANK14  BANK15
  2379 ;;      Params:         2       0       0       0       0       0       0       0       0       0       0       0       
      +0       0       0       0       0
  2380 ;;      Locals:         2       0       0       0       0       0       0       0       0       0       0       0       
      +0       0       0       0       0
  2381 ;;      Temps:          0       0       0       0       0       0       0       0       0       0       0       0       
      +0       0       0       0       0
  2382 ;;      Totals:         4       0       0       0       0       0       0       0       0       0       0       0       
      +0       0       0       0       0
  2383 ;;Total ram usage:        4 bytes
  2384 ;; Hardware stack levels used: 1
  2385 ;; This function calls:
  2386 ;;		Nothing
  2387 ;; This function is called by:
  2388 ;;		_print
  2389 ;; This function uses a non-reentrant model
  2390 ;;
  2391                           
  2392                           	psect	text2
  2393  00245C                     __ptext2:
  2394                           	callstack 0
  2395  00245C                     _strlen:
  2396                           	callstack 29
  2397  00245C  C001  F003         	movff	strlen@s,strlen@a
  2398  002460  C002  F004         	movff	strlen@s+1,strlen@a+1
  2399  002464  EF36  F012         	goto	l1763
  2400  002468                     l1761:
  2401  002468  4A01               	infsnz	strlen@s^0,f,c
  2402  00246A  2A02               	incf	(strlen@s+1)^0,f,c
  2403  00246C                     l1763:
  2404  00246C  0060  F007  FFF6   	movff	strlen@s,tblptrl
  2405  002472  0060  F00B  FFF7   	movff	strlen@s+1,tblptrh
  2406  002478                     	if	1	;Program memory is < 0x10000, tblptru is always zero
  2407  002478  6AF8               	clrf	tblptru,c
  2408  00247A                     	endif
  2409  00247A                     	if	0	;tblptru may be non-zero
  2410  00247A                     	endif
  2411  00247A  0008               	tblrd		*
  2412  00247C  50F5               	movf	tablat,w,c
  2413  00247E  0900               	iorlw	0
  2414  002480  A4D8               	btfss	status,2,c
  2415  002482  EF45  F012         	goto	u971
  2416  002486  EF47  F012         	goto	u970
  2417  00248A                     u971:
  2418  00248A  EF34  F012         	goto	l1761
  2419  00248E                     u970:
  2420  00248E  5003               	movf	strlen@a^0,w,c
  2421  002490  5C01               	subwf	strlen@s^0,w,c
  2422  002492  6E01               	movwf	?_strlen^0,c
  2423  002494  5004               	movf	(strlen@a+1)^0,w,c
  2424  002496  5802               	subwfb	(strlen@s+1)^0,w,c
  2425  002498  6E02               	movwf	(?_strlen+1)^0,c
  2426  00249A  0012               	return		;funcret
  2427  00249C                     __end_of_strlen:
  2428                           	callstack 0
  2429                           
  2430 ;; *************** function _UART1_Write *****************
  2431 ;; Defined at:
  2432 ;;		line 170 in file "mcc_generated_files/uart1.c"
  2433 ;; Parameters:    Size  Location     Type
  2434 ;;  txData          1    wreg     unsigned char 
  2435 ;; Auto vars:     Size  Location     Type
  2436 ;;  txData          1    0[COMRAM] unsigned char 
  2437 ;; Return value:  Size  Location     Type
  2438 ;;                  1    wreg      void 
  2439 ;; Registers used:
  2440 ;;		wreg
  2441 ;; Tracked objects:
  2442 ;;		On entry : 0/0
  2443 ;;		On exit  : 0/0
  2444 ;;		Unchanged: 0/0
  2445 ;; Data sizes:     COMRAM   BANK0   BANK1   BANK2   BANK3   BANK4   BANK5   BANK6   BANK7   BANK8   BANK9  BANK10  BANK1
      +1  BANK12  BANK13  BANK14  BANK15
  2446 ;;      Params:         0       0       0       0       0       0       0       0       0       0       0       0       
      +0       0       0       0       0
  2447 ;;      Locals:         1       0       0       0       0       0       0       0       0       0       0       0       
      +0       0       0       0       0
  2448 ;;      Temps:          0       0       0       0       0       0       0       0       0       0       0       0       
      +0       0       0       0       0
  2449 ;;      Totals:         1       0       0       0       0       0       0       0       0       0       0       0       
      +0       0       0       0       0
  2450 ;;Total ram usage:        1 bytes
  2451 ;; Hardware stack levels used: 1
  2452 ;; This function calls:
  2453 ;;		Nothing
  2454 ;; This function is called by:
  2455 ;;		_print
  2456 ;; This function uses a non-reentrant model
  2457 ;;
  2458                           
  2459                           	psect	text3
  2460  0024C0                     __ptext3:
  2461                           	callstack 0
  2462  0024C0                     _UART1_Write:
  2463                           	callstack 29
  2464                           
  2465                           ;incstack = 0
  2466                           ;UART1_Write@txData stored from wreg
  2467  0024C0  6E01               	movwf	UART1_Write@txData^0,c
  2468  0024C2                     l344:
  2469                           
  2470                           ;mcc_generated_files/uart1.c: 172:     while(0 == PIR3bits.U1TXIF)
  2471  0024C2  0139               	movlb	57	; () banked
  2472  0024C4  A9A3               	btfss	163,4,b	;volatile
  2473  0024C6  EF67  F012         	goto	u961
  2474  0024CA  EF69  F012         	goto	u960
  2475  0024CE                     u961:
  2476  0024CE  EF61  F012         	goto	l344
  2477  0024D2                     u960:
  2478  0024D2                     
  2479                           ; BSR set to: 57
  2480                           ;mcc_generated_files/uart1.c: 176:     U1TXB = txData;
  2481  0024D2  0060  F007  FDEA   	movff	UART1_Write@txData,15850	;volatile
  2482  0024D8                     
  2483                           ; BSR set to: 57
  2484  0024D8  0012               	return		;funcret
  2485  0024DA                     __end_of_UART1_Write:
  2486                           	callstack 0
  2487                           
  2488 ;; *************** function _getPedalLow *****************
  2489 ;; Defined at:
  2490 ;;		line 134 in file "main.c"
  2491 ;; Parameters:    Size  Location     Type
  2492 ;;		None
  2493 ;; Auto vars:     Size  Location     Type
  2494 ;;		None
  2495 ;; Return value:  Size  Location     Type
  2496 ;;                  1    wreg      unsigned char 
  2497 ;; Registers used:
  2498 ;;		wreg, status,2
  2499 ;; Tracked objects:
  2500 ;;		On entry : 0/0
  2501 ;;		On exit  : 0/0
  2502 ;;		Unchanged: 0/0
  2503 ;; Data sizes:     COMRAM   BANK0   BANK1   BANK2   BANK3   BANK4   BANK5   BANK6   BANK7   BANK8   BANK9  BANK10  BANK1
      +1  BANK12  BANK13  BANK14  BANK15
  2504 ;;      Params:         0       0       0       0       0       0       0       0       0       0       0       0       
      +0       0       0       0       0
  2505 ;;      Locals:         0       0       0       0       0       0       0       0       0       0       0       0       
      +0       0       0       0       0
  2506 ;;      Temps:          0       0       0       0       0       0       0       0       0       0       0       0       
      +0       0       0       0       0
  2507 ;;      Totals:         0       0       0       0       0       0       0       0       0       0       0       0       
      +0       0       0       0       0
  2508 ;;Total ram usage:        0 bytes
  2509 ;; Hardware stack levels used: 1
  2510 ;; This function calls:
  2511 ;;		Nothing
  2512 ;; This function is called by:
  2513 ;;		_main
  2514 ;; This function uses a non-reentrant model
  2515 ;;
  2516                           
  2517                           	psect	text4
  2518  002550                     __ptext4:
  2519                           	callstack 0
  2520  002550                     _getPedalLow:
  2521                           	callstack 30
  2522  002550                     
  2523                           ;main.c: 136:     return THROTTLE_LOW;
  2524  002550  5059               	movf	_THROTTLE_LOW^0,w,c	;volatile
  2525  002552  0012               	return		;funcret
  2526  002554                     __end_of_getPedalLow:
  2527                           	callstack 0
  2528                           
  2529 ;; *************** function _getPedalHigh *****************
  2530 ;; Defined at:
  2531 ;;		line 128 in file "main.c"
  2532 ;; Parameters:    Size  Location     Type
  2533 ;;		None
  2534 ;; Auto vars:     Size  Location     Type
  2535 ;;		None
  2536 ;; Return value:  Size  Location     Type
  2537 ;;                  1    wreg      unsigned char 
  2538 ;; Registers used:
  2539 ;;		wreg, status,2
  2540 ;; Tracked objects:
  2541 ;;		On entry : 0/0
  2542 ;;		On exit  : 0/0
  2543 ;;		Unchanged: 0/0
  2544 ;; Data sizes:     COMRAM   BANK0   BANK1   BANK2   BANK3   BANK4   BANK5   BANK6   BANK7   BANK8   BANK9  BANK10  BANK1
      +1  BANK12  BANK13  BANK14  BANK15
  2545 ;;      Params:         0       0       0       0       0       0       0       0       0       0       0       0       
      +0       0       0       0       0
  2546 ;;      Locals:         0       0       0       0       0       0       0       0       0       0       0       0       
      +0       0       0       0       0
  2547 ;;      Temps:          0       0       0       0       0       0       0       0       0       0       0       0       
      +0       0       0       0       0
  2548 ;;      Totals:         0       0       0       0       0       0       0       0       0       0       0       0       
      +0       0       0       0       0
  2549 ;;Total ram usage:        0 bytes
  2550 ;; Hardware stack levels used: 1
  2551 ;; This function calls:
  2552 ;;		Nothing
  2553 ;; This function is called by:
  2554 ;;		_main
  2555 ;; This function uses a non-reentrant model
  2556 ;;
  2557                           
  2558                           	psect	text5
  2559  002554                     __ptext5:
  2560                           	callstack 0
  2561  002554                     _getPedalHigh:
  2562                           	callstack 30
  2563  002554                     
  2564                           ;main.c: 130:     return THROTTLE_HIGH;
  2565  002554  505A               	movf	_THROTTLE_HIGH^0,w,c	;volatile
  2566  002556  0012               	return		;funcret
  2567  002558                     __end_of_getPedalHigh:
  2568                           	callstack 0
  2569                           
  2570 ;; *************** function _getErrorTolerance *****************
  2571 ;; Defined at:
  2572 ;;		line 98 in file "main.c"
  2573 ;; Parameters:    Size  Location     Type
  2574 ;;		None
  2575 ;; Auto vars:     Size  Location     Type
  2576 ;;		None
  2577 ;; Return value:  Size  Location     Type
  2578 ;;                  1    wreg      unsigned char 
  2579 ;; Registers used:
  2580 ;;		wreg, status,2
  2581 ;; Tracked objects:
  2582 ;;		On entry : 0/0
  2583 ;;		On exit  : 0/0
  2584 ;;		Unchanged: 0/0
  2585 ;; Data sizes:     COMRAM   BANK0   BANK1   BANK2   BANK3   BANK4   BANK5   BANK6   BANK7   BANK8   BANK9  BANK10  BANK1
      +1  BANK12  BANK13  BANK14  BANK15
  2586 ;;      Params:         0       0       0       0       0       0       0       0       0       0       0       0       
      +0       0       0       0       0
  2587 ;;      Locals:         0       0       0       0       0       0       0       0       0       0       0       0       
      +0       0       0       0       0
  2588 ;;      Temps:          0       0       0       0       0       0       0       0       0       0       0       0       
      +0       0       0       0       0
  2589 ;;      Totals:         0       0       0       0       0       0       0       0       0       0       0       0       
      +0       0       0       0       0
  2590 ;;Total ram usage:        0 bytes
  2591 ;; Hardware stack levels used: 1
  2592 ;; This function calls:
  2593 ;;		Nothing
  2594 ;; This function is called by:
  2595 ;;		_main
  2596 ;; This function uses a non-reentrant model
  2597 ;;
  2598                           
  2599                           	psect	text6
  2600  002558                     __ptext6:
  2601                           	callstack 0
  2602  002558                     _getErrorTolerance:
  2603                           	callstack 30
  2604  002558                     
  2605                           ;main.c: 100:     return ERROR_TOLERANCE;
  2606  002558  505F               	movf	_ERROR_TOLERANCE^0,w,c	;volatile
  2607  00255A  0012               	return		;funcret
  2608  00255C                     __end_of_getErrorTolerance:
  2609                           	callstack 0
  2610                           
  2611 ;; *************** function _getCurtisHeartBeatCheck *****************
  2612 ;; Defined at:
  2613 ;;		line 104 in file "main.c"
  2614 ;; Parameters:    Size  Location     Type
  2615 ;;		None
  2616 ;; Auto vars:     Size  Location     Type
  2617 ;;		None
  2618 ;; Return value:  Size  Location     Type
  2619 ;;                  1    wreg      unsigned char 
  2620 ;; Registers used:
  2621 ;;		wreg, status,2
  2622 ;; Tracked objects:
  2623 ;;		On entry : 0/0
  2624 ;;		On exit  : 0/0
  2625 ;;		Unchanged: 0/0
  2626 ;; Data sizes:     COMRAM   BANK0   BANK1   BANK2   BANK3   BANK4   BANK5   BANK6   BANK7   BANK8   BANK9  BANK10  BANK1
      +1  BANK12  BANK13  BANK14  BANK15
  2627 ;;      Params:         0       0       0       0       0       0       0       0       0       0       0       0       
      +0       0       0       0       0
  2628 ;;      Locals:         0       0       0       0       0       0       0       0       0       0       0       0       
      +0       0       0       0       0
  2629 ;;      Temps:          0       0       0       0       0       0       0       0       0       0       0       0       
      +0       0       0       0       0
  2630 ;;      Totals:         0       0       0       0       0       0       0       0       0       0       0       0       
      +0       0       0       0       0
  2631 ;;Total ram usage:        0 bytes
  2632 ;; Hardware stack levels used: 1
  2633 ;; This function calls:
  2634 ;;		Nothing
  2635 ;; This function is called by:
  2636 ;;		_main
  2637 ;; This function uses a non-reentrant model
  2638 ;;
  2639                           
  2640                           	psect	text7
  2641  00255C                     __ptext7:
  2642                           	callstack 0
  2643  00255C                     _getCurtisHeartBeatCheck:
  2644                           	callstack 30
  2645  00255C                     
  2646                           ;main.c: 106:     return CURTIS_HEART_BEAT_CHECK;
  2647  00255C  505E               	movf	_CURTIS_HEART_BEAT_CHECK^0,w,c	;volatile
  2648  00255E  0012               	return		;funcret
  2649  002560                     __end_of_getCurtisHeartBeatCheck:
  2650                           	callstack 0
  2651                           
  2652 ;; *************** function _getCapacitorVoltage *****************
  2653 ;; Defined at:
  2654 ;;		line 116 in file "main.c"
  2655 ;; Parameters:    Size  Location     Type
  2656 ;;		None
  2657 ;; Auto vars:     Size  Location     Type
  2658 ;;		None
  2659 ;; Return value:  Size  Location     Type
  2660 ;;                  1    wreg      unsigned char 
  2661 ;; Registers used:
  2662 ;;		wreg, status,2
  2663 ;; Tracked objects:
  2664 ;;		On entry : 0/0
  2665 ;;		On exit  : 0/0
  2666 ;;		Unchanged: 0/0
  2667 ;; Data sizes:     COMRAM   BANK0   BANK1   BANK2   BANK3   BANK4   BANK5   BANK6   BANK7   BANK8   BANK9  BANK10  BANK1
      +1  BANK12  BANK13  BANK14  BANK15
  2668 ;;      Params:         0       0       0       0       0       0       0       0       0       0       0       0       
      +0       0       0       0       0
  2669 ;;      Locals:         0       0       0       0       0       0       0       0       0       0       0       0       
      +0       0       0       0       0
  2670 ;;      Temps:          0       0       0       0       0       0       0       0       0       0       0       0       
      +0       0       0       0       0
  2671 ;;      Totals:         0       0       0       0       0       0       0       0       0       0       0       0       
      +0       0       0       0       0
  2672 ;;Total ram usage:        0 bytes
  2673 ;; Hardware stack levels used: 1
  2674 ;; This function calls:
  2675 ;;		Nothing
  2676 ;; This function is called by:
  2677 ;;		_main
  2678 ;; This function uses a non-reentrant model
  2679 ;;
  2680                           
  2681                           	psect	text8
  2682  002560                     __ptext8:
  2683                           	callstack 0
  2684  002560                     _getCapacitorVoltage:
  2685                           	callstack 30
  2686  002560                     
  2687                           ;main.c: 118:     return CAPACITOR_VOLT;
  2688  002560  505C               	movf	_CAPACITOR_VOLT^0,w,c	;volatile
  2689  002562  0012               	return		;funcret
  2690  002564                     __end_of_getCapacitorVoltage:
  2691                           	callstack 0
  2692                           
  2693 ;; *************** function _getAckRx *****************
  2694 ;; Defined at:
  2695 ;;		line 122 in file "main.c"
  2696 ;; Parameters:    Size  Location     Type
  2697 ;;		None
  2698 ;; Auto vars:     Size  Location     Type
  2699 ;;		None
  2700 ;; Return value:  Size  Location     Type
  2701 ;;                  1    wreg      unsigned char 
  2702 ;; Registers used:
  2703 ;;		wreg, status,2
  2704 ;; Tracked objects:
  2705 ;;		On entry : 0/0
  2706 ;;		On exit  : 0/0
  2707 ;;		Unchanged: 0/0
  2708 ;; Data sizes:     COMRAM   BANK0   BANK1   BANK2   BANK3   BANK4   BANK5   BANK6   BANK7   BANK8   BANK9  BANK10  BANK1
      +1  BANK12  BANK13  BANK14  BANK15
  2709 ;;      Params:         0       0       0       0       0       0       0       0       0       0       0       0       
      +0       0       0       0       0
  2710 ;;      Locals:         0       0       0       0       0       0       0       0       0       0       0       0       
      +0       0       0       0       0
  2711 ;;      Temps:          0       0       0       0       0       0       0       0       0       0       0       0       
      +0       0       0       0       0
  2712 ;;      Totals:         0       0       0       0       0       0       0       0       0       0       0       0       
      +0       0       0       0       0
  2713 ;;Total ram usage:        0 bytes
  2714 ;; Hardware stack levels used: 1
  2715 ;; This function calls:
  2716 ;;		Nothing
  2717 ;; This function is called by:
  2718 ;;		_main
  2719 ;; This function uses a non-reentrant model
  2720 ;;
  2721                           
  2722                           	psect	text9
  2723  002564                     __ptext9:
  2724                           	callstack 0
  2725  002564                     _getAckRx:
  2726                           	callstack 30
  2727  002564                     
  2728                           ;main.c: 124:     return ACK_RX;
  2729  002564  505B               	movf	_ACK_RX^0,w,c	;volatile
  2730  002566  0012               	return		;funcret
  2731  002568                     __end_of_getAckRx:
  2732                           	callstack 0
  2733                           
  2734 ;; *************** function _getABSMotorRPM *****************
  2735 ;; Defined at:
  2736 ;;		line 110 in file "main.c"
  2737 ;; Parameters:    Size  Location     Type
  2738 ;;		None
  2739 ;; Auto vars:     Size  Location     Type
  2740 ;;		None
  2741 ;; Return value:  Size  Location     Type
  2742 ;;                  1    wreg      unsigned char 
  2743 ;; Registers used:
  2744 ;;		wreg, status,2
  2745 ;; Tracked objects:
  2746 ;;		On entry : 0/0
  2747 ;;		On exit  : 0/0
  2748 ;;		Unchanged: 0/0
  2749 ;; Data sizes:     COMRAM   BANK0   BANK1   BANK2   BANK3   BANK4   BANK5   BANK6   BANK7   BANK8   BANK9  BANK10  BANK1
      +1  BANK12  BANK13  BANK14  BANK15
  2750 ;;      Params:         0       0       0       0       0       0       0       0       0       0       0       0       
      +0       0       0       0       0
  2751 ;;      Locals:         0       0       0       0       0       0       0       0       0       0       0       0       
      +0       0       0       0       0
  2752 ;;      Temps:          0       0       0       0       0       0       0       0       0       0       0       0       
      +0       0       0       0       0
  2753 ;;      Totals:         0       0       0       0       0       0       0       0       0       0       0       0       
      +0       0       0       0       0
  2754 ;;Total ram usage:        0 bytes
  2755 ;; Hardware stack levels used: 1
  2756 ;; This function calls:
  2757 ;;		Nothing
  2758 ;; This function is called by:
  2759 ;;		_main
  2760 ;; This function uses a non-reentrant model
  2761 ;;
  2762                           
  2763                           	psect	text10
  2764  002568                     __ptext10:
  2765                           	callstack 0
  2766  002568                     _getABSMotorRPM:
  2767                           	callstack 30
  2768  002568                     
  2769                           ;main.c: 112:     return ABS_MOTOR_RPM;
  2770  002568  505D               	movf	_ABS_MOTOR_RPM^0,w,c	;volatile
  2771  00256A  0012               	return		;funcret
  2772  00256C                     __end_of_getABSMotorRPM:
  2773                           	callstack 0
  2774                           
  2775 ;; *************** function ___xxtofl *****************
  2776 ;; Defined at:
  2777 ;;		line 10 in file "C:\Program Files\Microchip\xc8\v2.32\pic\sources\c99\common\xxtofl.c"
  2778 ;; Parameters:    Size  Location     Type
  2779 ;;  sign            1    wreg     unsigned char 
  2780 ;;  val             4    0[COMRAM] long 
  2781 ;; Auto vars:     Size  Location     Type
  2782 ;;  sign            1    8[COMRAM] unsigned char 
  2783 ;;  arg             4   10[COMRAM] unsigned long 
  2784 ;;  exp             1    9[COMRAM] unsigned char 
  2785 ;; Return value:  Size  Location     Type
  2786 ;;                  4    0[COMRAM] unsigned char 
  2787 ;; Registers used:
  2788 ;;		wreg, status,2, status,0
  2789 ;; Tracked objects:
  2790 ;;		On entry : 0/0
  2791 ;;		On exit  : 0/0
  2792 ;;		Unchanged: 0/0
  2793 ;; Data sizes:     COMRAM   BANK0   BANK1   BANK2   BANK3   BANK4   BANK5   BANK6   BANK7   BANK8   BANK9  BANK10  BANK1
      +1  BANK12  BANK13  BANK14  BANK15
  2794 ;;      Params:         4       0       0       0       0       0       0       0       0       0       0       0       
      +0       0       0       0       0
  2795 ;;      Locals:         6       0       0       0       0       0       0       0       0       0       0       0       
      +0       0       0       0       0
  2796 ;;      Temps:          4       0       0       0       0       0       0       0       0       0       0       0       
      +0       0       0       0       0
  2797 ;;      Totals:        14       0       0       0       0       0       0       0       0       0       0       0       
      +0       0       0       0       0
  2798 ;;Total ram usage:       14 bytes
  2799 ;; Hardware stack levels used: 1
  2800 ;; This function calls:
  2801 ;;		Nothing
  2802 ;; This function is called by:
  2803 ;;		_main
  2804 ;; This function uses a non-reentrant model
  2805 ;;
  2806                           
  2807                           	psect	text11
  2808  001EB8                     __ptext11:
  2809                           	callstack 0
  2810  001EB8                     ___xxtofl:
  2811                           	callstack 30
  2812                           
  2813                           ;incstack = 0
  2814                           ;___xxtofl@sign stored from wreg
  2815  001EB8  6E09               	movwf	___xxtofl@sign^0,c
  2816  001EBA  5009               	movf	___xxtofl@sign^0,w,c
  2817  001EBC  B4D8               	btfsc	status,2,c
  2818  001EBE  EF63  F00F         	goto	u1361
  2819  001EC2  EF65  F00F         	goto	u1360
  2820  001EC6                     u1361:
  2821  001EC6  EF87  F00F         	goto	l1023
  2822  001ECA                     u1360:
  2823  001ECA  BE04               	btfsc	(___xxtofl@val+3)^0,7,c
  2824  001ECC  EF6C  F00F         	goto	u1370
  2825  001ED0  EF6A  F00F         	goto	u1371
  2826  001ED4                     u1371:
  2827  001ED4  EF87  F00F         	goto	l1023
  2828  001ED8                     u1370:
  2829  001ED8  C001  F005         	movff	___xxtofl@val,??___xxtofl
  2830  001EDC  C002  F006         	movff	___xxtofl@val+1,??___xxtofl+1
  2831  001EE0  C003  F007         	movff	___xxtofl@val+2,??___xxtofl+2
  2832  001EE4  C004  F008         	movff	___xxtofl@val+3,??___xxtofl+3
  2833  001EE8  1E05               	comf	??___xxtofl^0,f,c
  2834  001EEA  1E06               	comf	(??___xxtofl+1)^0,f,c
  2835  001EEC  1E07               	comf	(??___xxtofl+2)^0,f,c
  2836  001EEE  1E08               	comf	(??___xxtofl+3)^0,f,c
  2837  001EF0  2A05               	incf	??___xxtofl^0,f,c
  2838  001EF2  0E00               	movlw	0
  2839  001EF4  2206               	addwfc	(??___xxtofl+1)^0,f,c
  2840  001EF6  2207               	addwfc	(??___xxtofl+2)^0,f,c
  2841  001EF8  2208               	addwfc	(??___xxtofl+3)^0,f,c
  2842  001EFA  C005  F00B         	movff	??___xxtofl,___xxtofl@arg
  2843  001EFE  C006  F00C         	movff	??___xxtofl+1,___xxtofl@arg+1
  2844  001F02  C007  F00D         	movff	??___xxtofl+2,___xxtofl@arg+2
  2845  001F06  C008  F00E         	movff	??___xxtofl+3,___xxtofl@arg+3
  2846  001F0A  EF8F  F00F         	goto	l2065
  2847  001F0E                     l1023:
  2848  001F0E  C001  F00B         	movff	___xxtofl@val,___xxtofl@arg
  2849  001F12  C002  F00C         	movff	___xxtofl@val+1,___xxtofl@arg+1
  2850  001F16  C003  F00D         	movff	___xxtofl@val+2,___xxtofl@arg+2
  2851  001F1A  C004  F00E         	movff	___xxtofl@val+3,___xxtofl@arg+3
  2852  001F1E                     l2065:
  2853  001F1E  5001               	movf	___xxtofl@val^0,w,c
  2854  001F20  1002               	iorwf	(___xxtofl@val+1)^0,w,c
  2855  001F22  1003               	iorwf	(___xxtofl@val+2)^0,w,c
  2856  001F24  1004               	iorwf	(___xxtofl@val+3)^0,w,c
  2857  001F26  A4D8               	btfss	status,2,c
  2858  001F28  EF98  F00F         	goto	u1381
  2859  001F2C  EF9A  F00F         	goto	u1380
  2860  001F30                     u1381:
  2861  001F30  EFA4  F00F         	goto	l2071
  2862  001F34                     u1380:
  2863  001F34  0E00               	movlw	0
  2864  001F36  6E01               	movwf	?___xxtofl^0,c
  2865  001F38  0E00               	movlw	0
  2866  001F3A  6E02               	movwf	(?___xxtofl+1)^0,c
  2867  001F3C  0E00               	movlw	0
  2868  001F3E  6E03               	movwf	(?___xxtofl+2)^0,c
  2869  001F40  0E00               	movlw	0
  2870  001F42  6E04               	movwf	(?___xxtofl+3)^0,c
  2871  001F44  EF35  F010         	goto	l1026
  2872  001F48                     l2071:
  2873  001F48  0E96               	movlw	150
  2874  001F4A  6E0A               	movwf	___xxtofl@exp^0,c
  2875  001F4C  EFAE  F00F         	goto	l2075
  2876  001F50                     l2073:
  2877  001F50  2A0A               	incf	___xxtofl@exp^0,f,c
  2878  001F52  90D8               	bcf	status,0,c
  2879  001F54  320E               	rrcf	(___xxtofl@arg+3)^0,f,c
  2880  001F56  320D               	rrcf	(___xxtofl@arg+2)^0,f,c
  2881  001F58  320C               	rrcf	(___xxtofl@arg+1)^0,f,c
  2882  001F5A  320B               	rrcf	___xxtofl@arg^0,f,c
  2883  001F5C                     l2075:
  2884  001F5C  0E00               	movlw	0
  2885  001F5E  140B               	andwf	___xxtofl@arg^0,w,c
  2886  001F60  6E05               	movwf	??___xxtofl^0,c
  2887  001F62  0E00               	movlw	0
  2888  001F64  140C               	andwf	(___xxtofl@arg+1)^0,w,c
  2889  001F66  6E06               	movwf	(??___xxtofl+1)^0,c
  2890  001F68  0E00               	movlw	0
  2891  001F6A  140D               	andwf	(___xxtofl@arg+2)^0,w,c
  2892  001F6C  6E07               	movwf	(??___xxtofl+2)^0,c
  2893  001F6E  0EFE               	movlw	254
  2894  001F70  140E               	andwf	(___xxtofl@arg+3)^0,w,c
  2895  001F72  6E08               	movwf	(??___xxtofl+3)^0,c
  2896  001F74  5005               	movf	??___xxtofl^0,w,c
  2897  001F76  1006               	iorwf	(??___xxtofl+1)^0,w,c
  2898  001F78  1007               	iorwf	(??___xxtofl+2)^0,w,c
  2899  001F7A  1008               	iorwf	(??___xxtofl+3)^0,w,c
  2900  001F7C  A4D8               	btfss	status,2,c
  2901  001F7E  EFC3  F00F         	goto	u1391
  2902  001F82  EFC5  F00F         	goto	u1390
  2903  001F86                     u1391:
  2904  001F86  EFA8  F00F         	goto	l2073
  2905  001F8A                     u1390:
  2906  001F8A  EFD3  F00F         	goto	l1030
  2907  001F8E                     l2077:
  2908  001F8E  2A0A               	incf	___xxtofl@exp^0,f,c
  2909  001F90  0E01               	movlw	1
  2910  001F92  260B               	addwf	___xxtofl@arg^0,f,c
  2911  001F94  0E00               	movlw	0
  2912  001F96  220C               	addwfc	(___xxtofl@arg+1)^0,f,c
  2913  001F98  220D               	addwfc	(___xxtofl@arg+2)^0,f,c
  2914  001F9A  220E               	addwfc	(___xxtofl@arg+3)^0,f,c
  2915  001F9C  90D8               	bcf	status,0,c
  2916  001F9E  320E               	rrcf	(___xxtofl@arg+3)^0,f,c
  2917  001FA0  320D               	rrcf	(___xxtofl@arg+2)^0,f,c
  2918  001FA2  320C               	rrcf	(___xxtofl@arg+1)^0,f,c
  2919  001FA4  320B               	rrcf	___xxtofl@arg^0,f,c
  2920  001FA6                     l1030:
  2921  001FA6  0E00               	movlw	0
  2922  001FA8  140B               	andwf	___xxtofl@arg^0,w,c
  2923  001FAA  6E05               	movwf	??___xxtofl^0,c
  2924  001FAC  0E00               	movlw	0
  2925  001FAE  140C               	andwf	(___xxtofl@arg+1)^0,w,c
  2926  001FB0  6E06               	movwf	(??___xxtofl+1)^0,c
  2927  001FB2  0E00               	movlw	0
  2928  001FB4  140D               	andwf	(___xxtofl@arg+2)^0,w,c
  2929  001FB6  6E07               	movwf	(??___xxtofl+2)^0,c
  2930  001FB8  0EFF               	movlw	255
  2931  001FBA  140E               	andwf	(___xxtofl@arg+3)^0,w,c
  2932  001FBC  6E08               	movwf	(??___xxtofl+3)^0,c
  2933  001FBE  5005               	movf	??___xxtofl^0,w,c
  2934  001FC0  1006               	iorwf	(??___xxtofl+1)^0,w,c
  2935  001FC2  1007               	iorwf	(??___xxtofl+2)^0,w,c
  2936  001FC4  1008               	iorwf	(??___xxtofl+3)^0,w,c
  2937  001FC6  A4D8               	btfss	status,2,c
  2938  001FC8  EFE8  F00F         	goto	u1401
  2939  001FCC  EFEA  F00F         	goto	u1400
  2940  001FD0                     u1401:
  2941  001FD0  EFC7  F00F         	goto	l2077
  2942  001FD4                     u1400:
  2943  001FD4  EFF2  F00F         	goto	l2085
  2944  001FD8                     l2083:
  2945  001FD8  060A               	decf	___xxtofl@exp^0,f,c
  2946  001FDA  90D8               	bcf	status,0,c
  2947  001FDC  360B               	rlcf	___xxtofl@arg^0,f,c
  2948  001FDE  360C               	rlcf	(___xxtofl@arg+1)^0,f,c
  2949  001FE0  360D               	rlcf	(___xxtofl@arg+2)^0,f,c
  2950  001FE2  360E               	rlcf	(___xxtofl@arg+3)^0,f,c
  2951  001FE4                     l2085:
  2952  001FE4  BE0D               	btfsc	(___xxtofl@arg+2)^0,7,c
  2953  001FE6  EFF7  F00F         	goto	u1411
  2954  001FEA  EFF9  F00F         	goto	u1410
  2955  001FEE                     u1411:
  2956  001FEE  EF01  F010         	goto	l1037
  2957  001FF2                     u1410:
  2958  001FF2  0E02               	movlw	2
  2959  001FF4  600A               	cpfslt	___xxtofl@exp^0,c
  2960  001FF6  EFFF  F00F         	goto	u1421
  2961  001FFA  EF01  F010         	goto	u1420
  2962  001FFE                     u1421:
  2963  001FFE  EFEC  F00F         	goto	l2083
  2964  002002                     u1420:
  2965  002002                     l1037:
  2966  002002  B00A               	btfsc	___xxtofl@exp^0,0,c
  2967  002004  EF06  F010         	goto	u1431
  2968  002008  EF08  F010         	goto	u1430
  2969  00200C                     u1431:
  2970  00200C  EF09  F010         	goto	l2091
  2971  002010                     u1430:
  2972  002010  9E0D               	bcf	(___xxtofl@arg+2)^0,7,c
  2973  002012                     l2091:
  2974  002012  90D8               	bcf	status,0,c
  2975  002014  320A               	rrcf	___xxtofl@exp^0,f,c
  2976  002016  C00A  F005         	movff	___xxtofl@exp,??___xxtofl
  2977  00201A  6A06               	clrf	(??___xxtofl+1)^0,c
  2978  00201C  6A07               	clrf	(??___xxtofl+2)^0,c
  2979  00201E  6A08               	clrf	(??___xxtofl+3)^0,c
  2980  002020  C005  F008         	movff	??___xxtofl,??___xxtofl+3
  2981  002024  6A07               	clrf	(??___xxtofl+2)^0,c
  2982  002026  6A06               	clrf	(??___xxtofl+1)^0,c
  2983  002028  6A05               	clrf	??___xxtofl^0,c
  2984  00202A  5005               	movf	??___xxtofl^0,w,c
  2985  00202C  120B               	iorwf	___xxtofl@arg^0,f,c
  2986  00202E  5006               	movf	(??___xxtofl+1)^0,w,c
  2987  002030  120C               	iorwf	(___xxtofl@arg+1)^0,f,c
  2988  002032  5007               	movf	(??___xxtofl+2)^0,w,c
  2989  002034  120D               	iorwf	(___xxtofl@arg+2)^0,f,c
  2990  002036  5008               	movf	(??___xxtofl+3)^0,w,c
  2991  002038  120E               	iorwf	(___xxtofl@arg+3)^0,f,c
  2992  00203A  5009               	movf	___xxtofl@sign^0,w,c
  2993  00203C  B4D8               	btfsc	status,2,c
  2994  00203E  EF23  F010         	goto	u1441
  2995  002042  EF25  F010         	goto	u1440
  2996  002046                     u1441:
  2997  002046  EF2D  F010         	goto	l2101
  2998  00204A                     u1440:
  2999  00204A  BE04               	btfsc	(___xxtofl@val+3)^0,7,c
  3000  00204C  EF2C  F010         	goto	u1450
  3001  002050  EF2A  F010         	goto	u1451
  3002  002054                     u1451:
  3003  002054  EF2D  F010         	goto	l2101
  3004  002058                     u1450:
  3005  002058  8E0E               	bsf	(___xxtofl@arg+3)^0,7,c
  3006  00205A                     l2101:
  3007  00205A  C00B  F001         	movff	___xxtofl@arg,?___xxtofl
  3008  00205E  C00C  F002         	movff	___xxtofl@arg+1,?___xxtofl+1
  3009  002062  C00D  F003         	movff	___xxtofl@arg+2,?___xxtofl+2
  3010  002066  C00E  F004         	movff	___xxtofl@arg+3,?___xxtofl+3
  3011  00206A                     l1026:
  3012  00206A  0012               	return		;funcret
  3013  00206C                     __end_of___xxtofl:
  3014                           	callstack 0
  3015                           
  3016 ;; *************** function ___lldiv *****************
  3017 ;; Defined at:
  3018 ;;		line 7 in file "C:\Program Files\Microchip\xc8\v2.32\pic\sources\c99\common\__lldiv.c"
  3019 ;; Parameters:    Size  Location     Type
  3020 ;;  dividend        4    0[COMRAM] unsigned long 
  3021 ;;  divisor         4    4[COMRAM] unsigned long 
  3022 ;; Auto vars:     Size  Location     Type
  3023 ;;  quotient        4    8[COMRAM] unsigned long 
  3024 ;;  counter         1   12[COMRAM] unsigned char 
  3025 ;; Return value:  Size  Location     Type
  3026 ;;                  4    0[COMRAM] unsigned long 
  3027 ;; Registers used:
  3028 ;;		wreg, status,2, status,0
  3029 ;; Tracked objects:
  3030 ;;		On entry : 0/0
  3031 ;;		On exit  : 0/0
  3032 ;;		Unchanged: 0/0
  3033 ;; Data sizes:     COMRAM   BANK0   BANK1   BANK2   BANK3   BANK4   BANK5   BANK6   BANK7   BANK8   BANK9  BANK10  BANK1
      +1  BANK12  BANK13  BANK14  BANK15
  3034 ;;      Params:         8       0       0       0       0       0       0       0       0       0       0       0       
      +0       0       0       0       0
  3035 ;;      Locals:         5       0       0       0       0       0       0       0       0       0       0       0       
      +0       0       0       0       0
  3036 ;;      Temps:          0       0       0       0       0       0       0       0       0       0       0       0       
      +0       0       0       0       0
  3037 ;;      Totals:        13       0       0       0       0       0       0       0       0       0       0       0       
      +0       0       0       0       0
  3038 ;;Total ram usage:       13 bytes
  3039 ;; Hardware stack levels used: 1
  3040 ;; This function calls:
  3041 ;;		Nothing
  3042 ;; This function is called by:
  3043 ;;		_main
  3044 ;; This function uses a non-reentrant model
  3045 ;;
  3046                           
  3047                           	psect	text12
  3048  002236                     __ptext12:
  3049                           	callstack 0
  3050  002236                     ___lldiv:
  3051                           	callstack 30
  3052  002236  0E00               	movlw	0
  3053  002238  6E09               	movwf	___lldiv@quotient^0,c
  3054  00223A  0E00               	movlw	0
  3055  00223C  6E0A               	movwf	(___lldiv@quotient+1)^0,c
  3056  00223E  0E00               	movlw	0
  3057  002240  6E0B               	movwf	(___lldiv@quotient+2)^0,c
  3058  002242  0E00               	movlw	0
  3059  002244  6E0C               	movwf	(___lldiv@quotient+3)^0,c
  3060  002246  5005               	movf	___lldiv@divisor^0,w,c
  3061  002248  1006               	iorwf	(___lldiv@divisor+1)^0,w,c
  3062  00224A  1007               	iorwf	(___lldiv@divisor+2)^0,w,c
  3063  00224C  1008               	iorwf	(___lldiv@divisor+3)^0,w,c
  3064  00224E  B4D8               	btfsc	status,2,c
  3065  002250  EF2C  F011         	goto	u1011
  3066  002254  EF2E  F011         	goto	u1010
  3067  002258                     u1011:
  3068  002258  EF64  F011         	goto	l395
  3069  00225C                     u1010:
  3070  00225C  0E01               	movlw	1
  3071  00225E  6E0D               	movwf	___lldiv@counter^0,c
  3072  002260  EF38  F011         	goto	l1827
  3073  002264                     l1825:
  3074  002264  90D8               	bcf	status,0,c
  3075  002266  3605               	rlcf	___lldiv@divisor^0,f,c
  3076  002268  3606               	rlcf	(___lldiv@divisor+1)^0,f,c
  3077  00226A  3607               	rlcf	(___lldiv@divisor+2)^0,f,c
  3078  00226C  3608               	rlcf	(___lldiv@divisor+3)^0,f,c
  3079  00226E  2A0D               	incf	___lldiv@counter^0,f,c
  3080  002270                     l1827:
  3081  002270  AE08               	btfss	(___lldiv@divisor+3)^0,7,c
  3082  002272  EF3D  F011         	goto	u1021
  3083  002276  EF3F  F011         	goto	u1020
  3084  00227A                     u1021:
  3085  00227A  EF32  F011         	goto	l1825
  3086  00227E                     u1020:
  3087  00227E                     l1829:
  3088  00227E  90D8               	bcf	status,0,c
  3089  002280  3609               	rlcf	___lldiv@quotient^0,f,c
  3090  002282  360A               	rlcf	(___lldiv@quotient+1)^0,f,c
  3091  002284  360B               	rlcf	(___lldiv@quotient+2)^0,f,c
  3092  002286  360C               	rlcf	(___lldiv@quotient+3)^0,f,c
  3093  002288  5005               	movf	___lldiv@divisor^0,w,c
  3094  00228A  5C01               	subwf	___lldiv@dividend^0,w,c
  3095  00228C  5006               	movf	(___lldiv@divisor+1)^0,w,c
  3096  00228E  5802               	subwfb	(___lldiv@dividend+1)^0,w,c
  3097  002290  5007               	movf	(___lldiv@divisor+2)^0,w,c
  3098  002292  5803               	subwfb	(___lldiv@dividend+2)^0,w,c
  3099  002294  5008               	movf	(___lldiv@divisor+3)^0,w,c
  3100  002296  5804               	subwfb	(___lldiv@dividend+3)^0,w,c
  3101  002298  A0D8               	btfss	status,0,c
  3102  00229A  EF51  F011         	goto	u1031
  3103  00229E  EF53  F011         	goto	u1030
  3104  0022A2                     u1031:
  3105  0022A2  EF5C  F011         	goto	l1837
  3106  0022A6                     u1030:
  3107  0022A6  5005               	movf	___lldiv@divisor^0,w,c
  3108  0022A8  5E01               	subwf	___lldiv@dividend^0,f,c
  3109  0022AA  5006               	movf	(___lldiv@divisor+1)^0,w,c
  3110  0022AC  5A02               	subwfb	(___lldiv@dividend+1)^0,f,c
  3111  0022AE  5007               	movf	(___lldiv@divisor+2)^0,w,c
  3112  0022B0  5A03               	subwfb	(___lldiv@dividend+2)^0,f,c
  3113  0022B2  5008               	movf	(___lldiv@divisor+3)^0,w,c
  3114  0022B4  5A04               	subwfb	(___lldiv@dividend+3)^0,f,c
  3115  0022B6  8009               	bsf	___lldiv@quotient^0,0,c
  3116  0022B8                     l1837:
  3117  0022B8  90D8               	bcf	status,0,c
  3118  0022BA  3208               	rrcf	(___lldiv@divisor+3)^0,f,c
  3119  0022BC  3207               	rrcf	(___lldiv@divisor+2)^0,f,c
  3120  0022BE  3206               	rrcf	(___lldiv@divisor+1)^0,f,c
  3121  0022C0  3205               	rrcf	___lldiv@divisor^0,f,c
  3122  0022C2  2E0D               	decfsz	___lldiv@counter^0,f,c
  3123  0022C4  EF3F  F011         	goto	l1829
  3124  0022C8                     l395:
  3125  0022C8  C009  F001         	movff	___lldiv@quotient,?___lldiv
  3126  0022CC  C00A  F002         	movff	___lldiv@quotient+1,?___lldiv+1
  3127  0022D0  C00B  F003         	movff	___lldiv@quotient+2,?___lldiv+2
  3128  0022D4  C00C  F004         	movff	___lldiv@quotient+3,?___lldiv+3
  3129  0022D8  0012               	return		;funcret
  3130  0022DA                     __end_of___lldiv:
  3131                           	callstack 0
  3132                           
  3133 ;; *************** function ___fltol *****************
  3134 ;; Defined at:
  3135 ;;		line 43 in file "C:\Program Files\Microchip\xc8\v2.32\pic\sources\c99\common\fltol.c"
  3136 ;; Parameters:    Size  Location     Type
  3137 ;;  f1              4   39[COMRAM] unsigned long 
  3138 ;; Auto vars:     Size  Location     Type
  3139 ;;  exp1            1   48[COMRAM] unsigned char 
  3140 ;;  sign1           1   47[COMRAM] unsigned char 
  3141 ;; Return value:  Size  Location     Type
  3142 ;;                  4   39[COMRAM] long 
  3143 ;; Registers used:
  3144 ;;		wreg, status,2, status,0
  3145 ;; Tracked objects:
  3146 ;;		On entry : 0/0
  3147 ;;		On exit  : 0/0
  3148 ;;		Unchanged: 0/0
  3149 ;; Data sizes:     COMRAM   BANK0   BANK1   BANK2   BANK3   BANK4   BANK5   BANK6   BANK7   BANK8   BANK9  BANK10  BANK1
      +1  BANK12  BANK13  BANK14  BANK15
  3150 ;;      Params:         4       0       0       0       0       0       0       0       0       0       0       0       
      +0       0       0       0       0
  3151 ;;      Locals:         2       0       0       0       0       0       0       0       0       0       0       0       
      +0       0       0       0       0
  3152 ;;      Temps:          4       0       0       0       0       0       0       0       0       0       0       0       
      +0       0       0       0       0
  3153 ;;      Totals:        10       0       0       0       0       0       0       0       0       0       0       0       
      +0       0       0       0       0
  3154 ;;Total ram usage:       10 bytes
  3155 ;; Hardware stack levels used: 1
  3156 ;; This function calls:
  3157 ;;		Nothing
  3158 ;; This function is called by:
  3159 ;;		_main
  3160 ;; This function uses a non-reentrant model
  3161 ;;
  3162                           
  3163                           	psect	text13
  3164  00206C                     __ptext13:
  3165                           	callstack 0
  3166  00206C                     ___fltol:
  3167                           	callstack 30
  3168  00206C  342A               	rlcf	(___fltol@f1+2)^0,w,c
  3169  00206E  342B               	rlcf	(___fltol@f1+3)^0,w,c
  3170  002070  6E31               	movwf	___fltol@exp1^0,c
  3171  002072  5031               	movf	___fltol@exp1^0,w,c
  3172  002074  A4D8               	btfss	status,2,c
  3173  002076  EF3F  F010         	goto	u1291
  3174  00207A  EF41  F010         	goto	u1290
  3175  00207E                     u1291:
  3176  00207E  EF4B  F010         	goto	l2021
  3177  002082                     u1290:
  3178  002082                     l2017:
  3179  002082  0E00               	movlw	0
  3180  002084  6E28               	movwf	?___fltol^0,c
  3181  002086  0E00               	movlw	0
  3182  002088  6E29               	movwf	(?___fltol+1)^0,c
  3183  00208A  0E00               	movlw	0
  3184  00208C  6E2A               	movwf	(?___fltol+2)^0,c
  3185  00208E  0E00               	movlw	0
  3186  002090  6E2B               	movwf	(?___fltol+3)^0,c
  3187  002092  EFB8  F010         	goto	l665
  3188  002096                     l2021:
  3189  002096  C028  F02C         	movff	___fltol@f1,??___fltol
  3190  00209A  C029  F02D         	movff	___fltol@f1+1,??___fltol+1
  3191  00209E  C02A  F02E         	movff	___fltol@f1+2,??___fltol+2
  3192  0020A2  C02B  F02F         	movff	___fltol@f1+3,??___fltol+3
  3193  0020A6  0E20               	movlw	32
  3194  0020A8  EF5B  F010         	goto	u1300
  3195  0020AC                     u1305:
  3196  0020AC  90D8               	bcf	status,0,c
  3197  0020AE  322F               	rrcf	(??___fltol+3)^0,f,c
  3198  0020B0  322E               	rrcf	(??___fltol+2)^0,f,c
  3199  0020B2  322D               	rrcf	(??___fltol+1)^0,f,c
  3200  0020B4  322C               	rrcf	??___fltol^0,f,c
  3201  0020B6                     u1300:
  3202  0020B6  2EE8               	decfsz	wreg,f,c
  3203  0020B8  EF56  F010         	goto	u1305
  3204  0020BC  502C               	movf	??___fltol^0,w,c
  3205  0020BE  6E30               	movwf	___fltol@sign1^0,c
  3206  0020C0  8E2A               	bsf	(___fltol@f1+2)^0,7,c
  3207  0020C2  0EFF               	movlw	255
  3208  0020C4  1628               	andwf	___fltol@f1^0,f,c
  3209  0020C6  0EFF               	movlw	255
  3210  0020C8  1629               	andwf	(___fltol@f1+1)^0,f,c
  3211  0020CA  0EFF               	movlw	255
  3212  0020CC  162A               	andwf	(___fltol@f1+2)^0,f,c
  3213  0020CE  0E00               	movlw	0
  3214  0020D0  162B               	andwf	(___fltol@f1+3)^0,f,c
  3215  0020D2  0E96               	movlw	150
  3216  0020D4  5E31               	subwf	___fltol@exp1^0,f,c
  3217  0020D6  BE31               	btfsc	___fltol@exp1^0,7,c
  3218  0020D8  EF72  F010         	goto	u1310
  3219  0020DC  EF70  F010         	goto	u1311
  3220  0020E0                     u1311:
  3221  0020E0  EF88  F010         	goto	l2041
  3222  0020E4                     u1310:
  3223  0020E4  5031               	movf	___fltol@exp1^0,w,c
  3224  0020E6  0A80               	xorlw	128
  3225  0020E8  0F97               	addlw	151
  3226  0020EA  B0D8               	btfsc	status,0,c
  3227  0020EC  EF7A  F010         	goto	u1321
  3228  0020F0  EF7C  F010         	goto	u1320
  3229  0020F4                     u1321:
  3230  0020F4  EF7E  F010         	goto	l2037
  3231  0020F8                     u1320:
  3232  0020F8  EF41  F010         	goto	l2017
  3233  0020FC                     l2037:
  3234  0020FC  90D8               	bcf	status,0,c
  3235  0020FE  322B               	rrcf	(___fltol@f1+3)^0,f,c
  3236  002100  322A               	rrcf	(___fltol@f1+2)^0,f,c
  3237  002102  3229               	rrcf	(___fltol@f1+1)^0,f,c
  3238  002104  3228               	rrcf	___fltol@f1^0,f,c
  3239  002106  3E31               	incfsz	___fltol@exp1^0,f,c
  3240  002108  EF7E  F010         	goto	l2037
  3241  00210C  EFA0  F010         	goto	l2051
  3242  002110                     l2041:
  3243  002110  0E1F               	movlw	31
  3244  002112  6431               	cpfsgt	___fltol@exp1^0,c
  3245  002114  EF8E  F010         	goto	u1331
  3246  002118  EF90  F010         	goto	u1330
  3247  00211C                     u1331:
  3248  00211C  EF98  F010         	goto	l2049
  3249  002120                     u1330:
  3250  002120  EF41  F010         	goto	l2017
  3251  002124                     l2047:
  3252  002124  90D8               	bcf	status,0,c
  3253  002126  3628               	rlcf	___fltol@f1^0,f,c
  3254  002128  3629               	rlcf	(___fltol@f1+1)^0,f,c
  3255  00212A  362A               	rlcf	(___fltol@f1+2)^0,f,c
  3256  00212C  362B               	rlcf	(___fltol@f1+3)^0,f,c
  3257  00212E  0631               	decf	___fltol@exp1^0,f,c
  3258  002130                     l2049:
  3259  002130  5031               	movf	___fltol@exp1^0,w,c
  3260  002132  A4D8               	btfss	status,2,c
  3261  002134  EF9E  F010         	goto	u1341
  3262  002138  EFA0  F010         	goto	u1340
  3263  00213C                     u1341:
  3264  00213C  EF92  F010         	goto	l2047
  3265  002140                     u1340:
  3266  002140                     l2051:
  3267  002140  5030               	movf	___fltol@sign1^0,w,c
  3268  002142  B4D8               	btfsc	status,2,c
  3269  002144  EFA6  F010         	goto	u1351
  3270  002148  EFA8  F010         	goto	u1350
  3271  00214C                     u1351:
  3272  00214C  EFB0  F010         	goto	l2055
  3273  002150                     u1350:
  3274  002150  1E2B               	comf	(___fltol@f1+3)^0,f,c
  3275  002152  1E2A               	comf	(___fltol@f1+2)^0,f,c
  3276  002154  1E29               	comf	(___fltol@f1+1)^0,f,c
  3277  002156  6C28               	negf	___fltol@f1^0,c
  3278  002158  0E00               	movlw	0
  3279  00215A  2229               	addwfc	(___fltol@f1+1)^0,f,c
  3280  00215C  222A               	addwfc	(___fltol@f1+2)^0,f,c
  3281  00215E  222B               	addwfc	(___fltol@f1+3)^0,f,c
  3282  002160                     l2055:
  3283  002160  C028  F028         	movff	___fltol@f1,?___fltol
  3284  002164  C029  F029         	movff	___fltol@f1+1,?___fltol+1
  3285  002168  C02A  F02A         	movff	___fltol@f1+2,?___fltol+2
  3286  00216C  C02B  F02B         	movff	___fltol@f1+3,?___fltol+3
  3287  002170                     l665:
  3288  002170  0012               	return		;funcret
  3289  002172                     __end_of___fltol:
  3290                           	callstack 0
  3291                           
  3292 ;; *************** function ___flmul *****************
  3293 ;; Defined at:
  3294 ;;		line 8 in file "C:\Program Files\Microchip\xc8\v2.32\pic\sources\c99\common\sprcmul.c"
  3295 ;; Parameters:    Size  Location     Type
  3296 ;;  b               4   14[COMRAM] long 
  3297 ;;  a               4   18[COMRAM] long 
  3298 ;; Auto vars:     Size  Location     Type
  3299 ;;  prod            4   33[COMRAM] struct .
  3300 ;;  grs             4   27[COMRAM] unsigned long 
  3301 ;;  temp            2   37[COMRAM] struct .
  3302 ;;  bexp            1   32[COMRAM] unsigned char 
  3303 ;;  aexp            1   31[COMRAM] unsigned char 
  3304 ;;  sign            1   26[COMRAM] unsigned char 
  3305 ;; Return value:  Size  Location     Type
  3306 ;;                  4   14[COMRAM] unsigned char 
  3307 ;; Registers used:
  3308 ;;		wreg, status,2, status,0, prodl, prodh
  3309 ;; Tracked objects:
  3310 ;;		On entry : 0/0
  3311 ;;		On exit  : 0/0
  3312 ;;		Unchanged: 0/0
  3313 ;; Data sizes:     COMRAM   BANK0   BANK1   BANK2   BANK3   BANK4   BANK5   BANK6   BANK7   BANK8   BANK9  BANK10  BANK1
      +1  BANK12  BANK13  BANK14  BANK15
  3314 ;;      Params:         8       0       0       0       0       0       0       0       0       0       0       0       
      +0       0       0       0       0
  3315 ;;      Locals:        13       0       0       0       0       0       0       0       0       0       0       0       
      +0       0       0       0       0
  3316 ;;      Temps:          4       0       0       0       0       0       0       0       0       0       0       0       
      +0       0       0       0       0
  3317 ;;      Totals:        25       0       0       0       0       0       0       0       0       0       0       0       
      +0       0       0       0       0
  3318 ;;Total ram usage:       25 bytes
  3319 ;; Hardware stack levels used: 1
  3320 ;; This function calls:
  3321 ;;		Nothing
  3322 ;; This function is called by:
  3323 ;;		_main
  3324 ;; This function uses a non-reentrant model
  3325 ;;
  3326                           
  3327                           	psect	text14
  3328  00188A                     __ptext14:
  3329                           	callstack 0
  3330  00188A                     ___flmul:
  3331                           	callstack 30
  3332  00188A  5012               	movf	(___flmul@b+3)^0,w,c
  3333  00188C  0B80               	andlw	128
  3334  00188E  6E1B               	movwf	___flmul@sign^0,c
  3335  001890  5012               	movf	(___flmul@b+3)^0,w,c
  3336  001892  2412               	addwf	(___flmul@b+3)^0,w,c
  3337  001894  6E21               	movwf	___flmul@bexp^0,c
  3338  001896  AE11               	btfss	(___flmul@b+2)^0,7,c
  3339  001898  EF50  F00C         	goto	u1041
  3340  00189C  EF52  F00C         	goto	u1040
  3341  0018A0                     u1041:
  3342  0018A0  EF53  F00C         	goto	l1847
  3343  0018A4                     u1040:
  3344  0018A4  8021               	bsf	___flmul@bexp^0,0,c
  3345  0018A6                     l1847:
  3346  0018A6  5021               	movf	___flmul@bexp^0,w,c
  3347  0018A8  B4D8               	btfsc	status,2,c
  3348  0018AA  EF59  F00C         	goto	u1051
  3349  0018AE  EF5B  F00C         	goto	u1050
  3350  0018B2                     u1051:
  3351  0018B2  EF6E  F00C         	goto	l1855
  3352  0018B6                     u1050:
  3353  0018B6  2821               	incf	___flmul@bexp^0,w,c
  3354  0018B8  A4D8               	btfss	status,2,c
  3355  0018BA  EF61  F00C         	goto	u1061
  3356  0018BE  EF63  F00C         	goto	u1060
  3357  0018C2                     u1061:
  3358  0018C2  EF6B  F00C         	goto	l1853
  3359  0018C6                     u1060:
  3360  0018C6  0E00               	movlw	0
  3361  0018C8  6E0F               	movwf	___flmul@b^0,c
  3362  0018CA  0E00               	movlw	0
  3363  0018CC  6E10               	movwf	(___flmul@b+1)^0,c
  3364  0018CE  0E00               	movlw	0
  3365  0018D0  6E11               	movwf	(___flmul@b+2)^0,c
  3366  0018D2  0E00               	movlw	0
  3367  0018D4  6E12               	movwf	(___flmul@b+3)^0,c
  3368  0018D6                     l1853:
  3369  0018D6  8E11               	bsf	(___flmul@b+2)^0,7,c
  3370  0018D8  EF76  F00C         	goto	l1857
  3371  0018DC                     l1855:
  3372  0018DC  0E00               	movlw	0
  3373  0018DE  6E0F               	movwf	___flmul@b^0,c
  3374  0018E0  0E00               	movlw	0
  3375  0018E2  6E10               	movwf	(___flmul@b+1)^0,c
  3376  0018E4  0E00               	movlw	0
  3377  0018E6  6E11               	movwf	(___flmul@b+2)^0,c
  3378  0018E8  0E00               	movlw	0
  3379  0018EA  6E12               	movwf	(___flmul@b+3)^0,c
  3380  0018EC                     l1857:
  3381  0018EC  5016               	movf	(___flmul@a+3)^0,w,c
  3382  0018EE  0B80               	andlw	128
  3383  0018F0  1A1B               	xorwf	___flmul@sign^0,f,c
  3384  0018F2  5016               	movf	(___flmul@a+3)^0,w,c
  3385  0018F4  2416               	addwf	(___flmul@a+3)^0,w,c
  3386  0018F6  6E20               	movwf	___flmul@aexp^0,c
  3387  0018F8  AE15               	btfss	(___flmul@a+2)^0,7,c
  3388  0018FA  EF81  F00C         	goto	u1071
  3389  0018FE  EF83  F00C         	goto	u1070
  3390  001902                     u1071:
  3391  001902  EF84  F00C         	goto	l1865
  3392  001906                     u1070:
  3393  001906  8020               	bsf	___flmul@aexp^0,0,c
  3394  001908                     l1865:
  3395  001908  5020               	movf	___flmul@aexp^0,w,c
  3396  00190A  B4D8               	btfsc	status,2,c
  3397  00190C  EF8A  F00C         	goto	u1081
  3398  001910  EF8C  F00C         	goto	u1080
  3399  001914                     u1081:
  3400  001914  EF9F  F00C         	goto	l1873
  3401  001918                     u1080:
  3402  001918  2820               	incf	___flmul@aexp^0,w,c
  3403  00191A  A4D8               	btfss	status,2,c
  3404  00191C  EF92  F00C         	goto	u1091
  3405  001920  EF94  F00C         	goto	u1090
  3406  001924                     u1091:
  3407  001924  EF9C  F00C         	goto	l1871
  3408  001928                     u1090:
  3409  001928  0E00               	movlw	0
  3410  00192A  6E13               	movwf	___flmul@a^0,c
  3411  00192C  0E00               	movlw	0
  3412  00192E  6E14               	movwf	(___flmul@a+1)^0,c
  3413  001930  0E00               	movlw	0
  3414  001932  6E15               	movwf	(___flmul@a+2)^0,c
  3415  001934  0E00               	movlw	0
  3416  001936  6E16               	movwf	(___flmul@a+3)^0,c
  3417  001938                     l1871:
  3418  001938  8E15               	bsf	(___flmul@a+2)^0,7,c
  3419  00193A  EFA7  F00C         	goto	l982
  3420  00193E                     l1873:
  3421  00193E  0E00               	movlw	0
  3422  001940  6E13               	movwf	___flmul@a^0,c
  3423  001942  0E00               	movlw	0
  3424  001944  6E14               	movwf	(___flmul@a+1)^0,c
  3425  001946  0E00               	movlw	0
  3426  001948  6E15               	movwf	(___flmul@a+2)^0,c
  3427  00194A  0E00               	movlw	0
  3428  00194C  6E16               	movwf	(___flmul@a+3)^0,c
  3429  00194E                     l982:
  3430  00194E  5020               	movf	___flmul@aexp^0,w,c
  3431  001950  B4D8               	btfsc	status,2,c
  3432  001952  EFAD  F00C         	goto	u1101
  3433  001956  EFAF  F00C         	goto	u1100
  3434  00195A                     u1101:
  3435  00195A  EFB7  F00C         	goto	l1877
  3436  00195E                     u1100:
  3437  00195E  5021               	movf	___flmul@bexp^0,w,c
  3438  001960  A4D8               	btfss	status,2,c
  3439  001962  EFB5  F00C         	goto	u1111
  3440  001966  EFB7  F00C         	goto	u1110
  3441  00196A                     u1111:
  3442  00196A  EFC1  F00C         	goto	l1881
  3443  00196E                     u1110:
  3444  00196E                     l1877:
  3445  00196E  0E00               	movlw	0
  3446  001970  6E0F               	movwf	?___flmul^0,c
  3447  001972  0E00               	movlw	0
  3448  001974  6E10               	movwf	(?___flmul+1)^0,c
  3449  001976  0E00               	movlw	0
  3450  001978  6E11               	movwf	(?___flmul+2)^0,c
  3451  00197A  0E00               	movlw	0
  3452  00197C  6E12               	movwf	(?___flmul+3)^0,c
  3453  00197E  EF6B  F00E         	goto	l986
  3454  001982                     l1881:
  3455  001982  5015               	movf	(___flmul@a+2)^0,w,c
  3456  001984  020F               	mulwf	___flmul@b^0,c
  3457  001986  006F FFCC  F026    	movff	prodl,___flmul@temp
  3458  00198C  006F FFD0  F027    	movff	prodh,___flmul@temp+1
  3459  001992  5026               	movf	___flmul@temp^0,w,c
  3460  001994  6E1C               	movwf	___flmul@grs^0,c
  3461  001996  6A1D               	clrf	(___flmul@grs+1)^0,c
  3462  001998  6A1E               	clrf	(___flmul@grs+2)^0,c
  3463  00199A  6A1F               	clrf	(___flmul@grs+3)^0,c
  3464  00199C  5027               	movf	(___flmul@temp+1)^0,w,c
  3465  00199E  6E22               	movwf	___flmul@prod^0,c
  3466  0019A0  6A23               	clrf	(___flmul@prod+1)^0,c
  3467  0019A2  6A24               	clrf	(___flmul@prod+2)^0,c
  3468  0019A4  6A25               	clrf	(___flmul@prod+3)^0,c
  3469  0019A6  5014               	movf	(___flmul@a+1)^0,w,c
  3470  0019A8  0210               	mulwf	(___flmul@b+1)^0,c
  3471  0019AA  006F FFCC  F026    	movff	prodl,___flmul@temp
  3472  0019B0  006F FFD0  F027    	movff	prodh,___flmul@temp+1
  3473  0019B6  5026               	movf	___flmul@temp^0,w,c
  3474  0019B8  261C               	addwf	___flmul@grs^0,f,c
  3475  0019BA  0E00               	movlw	0
  3476  0019BC  221D               	addwfc	(___flmul@grs+1)^0,f,c
  3477  0019BE  221E               	addwfc	(___flmul@grs+2)^0,f,c
  3478  0019C0  221F               	addwfc	(___flmul@grs+3)^0,f,c
  3479  0019C2  5027               	movf	(___flmul@temp+1)^0,w,c
  3480  0019C4  2622               	addwf	___flmul@prod^0,f,c
  3481  0019C6  0E00               	movlw	0
  3482  0019C8  2223               	addwfc	(___flmul@prod+1)^0,f,c
  3483  0019CA  2224               	addwfc	(___flmul@prod+2)^0,f,c
  3484  0019CC  2225               	addwfc	(___flmul@prod+3)^0,f,c
  3485  0019CE  5013               	movf	___flmul@a^0,w,c
  3486  0019D0  0211               	mulwf	(___flmul@b+2)^0,c
  3487  0019D2  006F FFCC  F026    	movff	prodl,___flmul@temp
  3488  0019D8  006F FFD0  F027    	movff	prodh,___flmul@temp+1
  3489  0019DE  5026               	movf	___flmul@temp^0,w,c
  3490  0019E0  261C               	addwf	___flmul@grs^0,f,c
  3491  0019E2  0E00               	movlw	0
  3492  0019E4  221D               	addwfc	(___flmul@grs+1)^0,f,c
  3493  0019E6  221E               	addwfc	(___flmul@grs+2)^0,f,c
  3494  0019E8  221F               	addwfc	(___flmul@grs+3)^0,f,c
  3495  0019EA  5027               	movf	(___flmul@temp+1)^0,w,c
  3496  0019EC  2622               	addwf	___flmul@prod^0,f,c
  3497  0019EE  0E00               	movlw	0
  3498  0019F0  2223               	addwfc	(___flmul@prod+1)^0,f,c
  3499  0019F2  2224               	addwfc	(___flmul@prod+2)^0,f,c
  3500  0019F4  2225               	addwfc	(___flmul@prod+3)^0,f,c
  3501  0019F6  C01E  F01F         	movff	___flmul@grs+2,___flmul@grs+3
  3502  0019FA  C01D  F01E         	movff	___flmul@grs+1,___flmul@grs+2
  3503  0019FE  C01C  F01D         	movff	___flmul@grs,___flmul@grs+1
  3504  001A02  6A1C               	clrf	___flmul@grs^0,c
  3505  001A04  5013               	movf	___flmul@a^0,w,c
  3506  001A06  0210               	mulwf	(___flmul@b+1)^0,c
  3507  001A08  006F FFCC  F026    	movff	prodl,___flmul@temp
  3508  001A0E  006F FFD0  F027    	movff	prodh,___flmul@temp+1
  3509  001A14  5026               	movf	___flmul@temp^0,w,c
  3510  001A16  261C               	addwf	___flmul@grs^0,f,c
  3511  001A18  5027               	movf	(___flmul@temp+1)^0,w,c
  3512  001A1A  221D               	addwfc	(___flmul@grs+1)^0,f,c
  3513  001A1C  0E00               	movlw	0
  3514  001A1E  221E               	addwfc	(___flmul@grs+2)^0,f,c
  3515  001A20  0E00               	movlw	0
  3516  001A22  221F               	addwfc	(___flmul@grs+3)^0,f,c
  3517  001A24  5014               	movf	(___flmul@a+1)^0,w,c
  3518  001A26  020F               	mulwf	___flmul@b^0,c
  3519  001A28  006F FFCC  F026    	movff	prodl,___flmul@temp
  3520  001A2E  006F FFD0  F027    	movff	prodh,___flmul@temp+1
  3521  001A34  5026               	movf	___flmul@temp^0,w,c
  3522  001A36  261C               	addwf	___flmul@grs^0,f,c
  3523  001A38  5027               	movf	(___flmul@temp+1)^0,w,c
  3524  001A3A  221D               	addwfc	(___flmul@grs+1)^0,f,c
  3525  001A3C  0E00               	movlw	0
  3526  001A3E  221E               	addwfc	(___flmul@grs+2)^0,f,c
  3527  001A40  0E00               	movlw	0
  3528  001A42  221F               	addwfc	(___flmul@grs+3)^0,f,c
  3529  001A44  C01E  F01F         	movff	___flmul@grs+2,___flmul@grs+3
  3530  001A48  C01D  F01E         	movff	___flmul@grs+1,___flmul@grs+2
  3531  001A4C  C01C  F01D         	movff	___flmul@grs,___flmul@grs+1
  3532  001A50  6A1C               	clrf	___flmul@grs^0,c
  3533  001A52  5013               	movf	___flmul@a^0,w,c
  3534  001A54  020F               	mulwf	___flmul@b^0,c
  3535  001A56  006F FFCC  F026    	movff	prodl,___flmul@temp
  3536  001A5C  006F FFD0  F027    	movff	prodh,___flmul@temp+1
  3537  001A62  5026               	movf	___flmul@temp^0,w,c
  3538  001A64  261C               	addwf	___flmul@grs^0,f,c
  3539  001A66  5027               	movf	(___flmul@temp+1)^0,w,c
  3540  001A68  221D               	addwfc	(___flmul@grs+1)^0,f,c
  3541  001A6A  0E00               	movlw	0
  3542  001A6C  221E               	addwfc	(___flmul@grs+2)^0,f,c
  3543  001A6E  0E00               	movlw	0
  3544  001A70  221F               	addwfc	(___flmul@grs+3)^0,f,c
  3545  001A72  5015               	movf	(___flmul@a+2)^0,w,c
  3546  001A74  0210               	mulwf	(___flmul@b+1)^0,c
  3547  001A76  006F FFCC  F026    	movff	prodl,___flmul@temp
  3548  001A7C  006F FFD0  F027    	movff	prodh,___flmul@temp+1
  3549  001A82  5026               	movf	___flmul@temp^0,w,c
  3550  001A84  2622               	addwf	___flmul@prod^0,f,c
  3551  001A86  5027               	movf	(___flmul@temp+1)^0,w,c
  3552  001A88  2223               	addwfc	(___flmul@prod+1)^0,f,c
  3553  001A8A  0E00               	movlw	0
  3554  001A8C  2224               	addwfc	(___flmul@prod+2)^0,f,c
  3555  001A8E  0E00               	movlw	0
  3556  001A90  2225               	addwfc	(___flmul@prod+3)^0,f,c
  3557  001A92  5014               	movf	(___flmul@a+1)^0,w,c
  3558  001A94  0211               	mulwf	(___flmul@b+2)^0,c
  3559  001A96  006F FFCC  F026    	movff	prodl,___flmul@temp
  3560  001A9C  006F FFD0  F027    	movff	prodh,___flmul@temp+1
  3561  001AA2  5026               	movf	___flmul@temp^0,w,c
  3562  001AA4  2622               	addwf	___flmul@prod^0,f,c
  3563  001AA6  5027               	movf	(___flmul@temp+1)^0,w,c
  3564  001AA8  2223               	addwfc	(___flmul@prod+1)^0,f,c
  3565  001AAA  0E00               	movlw	0
  3566  001AAC  2224               	addwfc	(___flmul@prod+2)^0,f,c
  3567  001AAE  0E00               	movlw	0
  3568  001AB0  2225               	addwfc	(___flmul@prod+3)^0,f,c
  3569  001AB2  5015               	movf	(___flmul@a+2)^0,w,c
  3570  001AB4  0211               	mulwf	(___flmul@b+2)^0,c
  3571  001AB6  006F FFCC  F026    	movff	prodl,___flmul@temp
  3572  001ABC  006F FFD0  F027    	movff	prodh,___flmul@temp+1
  3573  001AC2  5026               	movf	___flmul@temp^0,w,c
  3574  001AC4  6E17               	movwf	??___flmul^0,c
  3575  001AC6  5027               	movf	(___flmul@temp+1)^0,w,c
  3576  001AC8  6E18               	movwf	(??___flmul+1)^0,c
  3577  001ACA  6A19               	clrf	(??___flmul+2)^0,c
  3578  001ACC  6A1A               	clrf	(??___flmul+3)^0,c
  3579  001ACE  C019  F01A         	movff	??___flmul+2,??___flmul+3
  3580  001AD2  C018  F019         	movff	??___flmul+1,??___flmul+2
  3581  001AD6  C017  F018         	movff	??___flmul,??___flmul+1
  3582  001ADA  6A17               	clrf	??___flmul^0,c
  3583  001ADC  5017               	movf	??___flmul^0,w,c
  3584  001ADE  2622               	addwf	___flmul@prod^0,f,c
  3585  001AE0  5018               	movf	(??___flmul+1)^0,w,c
  3586  001AE2  2223               	addwfc	(___flmul@prod+1)^0,f,c
  3587  001AE4  5019               	movf	(??___flmul+2)^0,w,c
  3588  001AE6  2224               	addwfc	(___flmul@prod+2)^0,f,c
  3589  001AE8  501A               	movf	(??___flmul+3)^0,w,c
  3590  001AEA  2225               	addwfc	(___flmul@prod+3)^0,f,c
  3591  001AEC  C01C  F017         	movff	___flmul@grs,??___flmul
  3592  001AF0  C01D  F018         	movff	___flmul@grs+1,??___flmul+1
  3593  001AF4  C01E  F019         	movff	___flmul@grs+2,??___flmul+2
  3594  001AF8  C01F  F01A         	movff	___flmul@grs+3,??___flmul+3
  3595  001AFC  0E19               	movlw	25
  3596  001AFE  EF86  F00D         	goto	u1120
  3597  001B02                     u1125:
  3598  001B02  90D8               	bcf	status,0,c
  3599  001B04  321A               	rrcf	(??___flmul+3)^0,f,c
  3600  001B06  3219               	rrcf	(??___flmul+2)^0,f,c
  3601  001B08  3218               	rrcf	(??___flmul+1)^0,f,c
  3602  001B0A  3217               	rrcf	??___flmul^0,f,c
  3603  001B0C                     u1120:
  3604  001B0C  2EE8               	decfsz	wreg,f,c
  3605  001B0E  EF81  F00D         	goto	u1125
  3606  001B12  5017               	movf	??___flmul^0,w,c
  3607  001B14  2622               	addwf	___flmul@prod^0,f,c
  3608  001B16  5018               	movf	(??___flmul+1)^0,w,c
  3609  001B18  2223               	addwfc	(___flmul@prod+1)^0,f,c
  3610  001B1A  5019               	movf	(??___flmul+2)^0,w,c
  3611  001B1C  2224               	addwfc	(___flmul@prod+2)^0,f,c
  3612  001B1E  501A               	movf	(??___flmul+3)^0,w,c
  3613  001B20  2225               	addwfc	(___flmul@prod+3)^0,f,c
  3614  001B22  C01E  F01F         	movff	___flmul@grs+2,___flmul@grs+3
  3615  001B26  C01D  F01E         	movff	___flmul@grs+1,___flmul@grs+2
  3616  001B2A  C01C  F01D         	movff	___flmul@grs,___flmul@grs+1
  3617  001B2E  6A1C               	clrf	___flmul@grs^0,c
  3618  001B30  5020               	movf	___flmul@aexp^0,w,c
  3619  001B32  C021  F017         	movff	___flmul@bexp,??___flmul
  3620  001B36  6A18               	clrf	(??___flmul+1)^0,c
  3621  001B38  2617               	addwf	??___flmul^0,f,c
  3622  001B3A  0E00               	movlw	0
  3623  001B3C  2218               	addwfc	(??___flmul+1)^0,f,c
  3624  001B3E  0E82               	movlw	130
  3625  001B40  2417               	addwf	??___flmul^0,w,c
  3626  001B42  6E26               	movwf	___flmul@temp^0,c
  3627  001B44  0EFF               	movlw	255
  3628  001B46  2018               	addwfc	(??___flmul+1)^0,w,c
  3629  001B48  6E27               	movwf	(___flmul@temp+1)^0,c
  3630  001B4A  EFBC  F00D         	goto	l1929
  3631  001B4E                     l1923:
  3632  001B4E  90D8               	bcf	status,0,c
  3633  001B50  3622               	rlcf	___flmul@prod^0,f,c
  3634  001B52  3623               	rlcf	(___flmul@prod+1)^0,f,c
  3635  001B54  3624               	rlcf	(___flmul@prod+2)^0,f,c
  3636  001B56  3625               	rlcf	(___flmul@prod+3)^0,f,c
  3637  001B58  AE1F               	btfss	(___flmul@grs+3)^0,7,c
  3638  001B5A  EFB1  F00D         	goto	u1131
  3639  001B5E  EFB3  F00D         	goto	u1130
  3640  001B62                     u1131:
  3641  001B62  EFB4  F00D         	goto	l989
  3642  001B66                     u1130:
  3643  001B66  8022               	bsf	___flmul@prod^0,0,c
  3644  001B68                     l989:
  3645  001B68  90D8               	bcf	status,0,c
  3646  001B6A  361C               	rlcf	___flmul@grs^0,f,c
  3647  001B6C  361D               	rlcf	(___flmul@grs+1)^0,f,c
  3648  001B6E  361E               	rlcf	(___flmul@grs+2)^0,f,c
  3649  001B70  361F               	rlcf	(___flmul@grs+3)^0,f,c
  3650  001B72  0626               	decf	___flmul@temp^0,f,c
  3651  001B74  A0D8               	btfss	status,0,c
  3652  001B76  0627               	decf	(___flmul@temp+1)^0,f,c
  3653  001B78                     l1929:
  3654  001B78  AE24               	btfss	(___flmul@prod+2)^0,7,c
  3655  001B7A  EFC1  F00D         	goto	u1141
  3656  001B7E  EFC3  F00D         	goto	u1140
  3657  001B82                     u1141:
  3658  001B82  EFA7  F00D         	goto	l1923
  3659  001B86                     u1140:
  3660  001B86  0E00               	movlw	0
  3661  001B88  6E20               	movwf	___flmul@aexp^0,c
  3662  001B8A  AE1F               	btfss	(___flmul@grs+3)^0,7,c
  3663  001B8C  EFCA  F00D         	goto	u1151
  3664  001B90  EFCC  F00D         	goto	u1150
  3665  001B94                     u1151:
  3666  001B94  EFF0  F00D         	goto	l991
  3667  001B98                     u1150:
  3668  001B98  0EFF               	movlw	255
  3669  001B9A  141C               	andwf	___flmul@grs^0,w,c
  3670  001B9C  6E17               	movwf	??___flmul^0,c
  3671  001B9E  0EFF               	movlw	255
  3672  001BA0  141D               	andwf	(___flmul@grs+1)^0,w,c
  3673  001BA2  6E18               	movwf	(??___flmul+1)^0,c
  3674  001BA4  0EFF               	movlw	255
  3675  001BA6  141E               	andwf	(___flmul@grs+2)^0,w,c
  3676  001BA8  6E19               	movwf	(??___flmul+2)^0,c
  3677  001BAA  0E7F               	movlw	127
  3678  001BAC  141F               	andwf	(___flmul@grs+3)^0,w,c
  3679  001BAE  6E1A               	movwf	(??___flmul+3)^0,c
  3680  001BB0  5017               	movf	??___flmul^0,w,c
  3681  001BB2  1018               	iorwf	(??___flmul+1)^0,w,c
  3682  001BB4  1019               	iorwf	(??___flmul+2)^0,w,c
  3683  001BB6  101A               	iorwf	(??___flmul+3)^0,w,c
  3684  001BB8  B4D8               	btfsc	status,2,c
  3685  001BBA  EFE1  F00D         	goto	u1161
  3686  001BBE  EFE3  F00D         	goto	u1160
  3687  001BC2                     u1161:
  3688  001BC2  EFE7  F00D         	goto	l992
  3689  001BC6                     u1160:
  3690  001BC6                     l1937:
  3691  001BC6  0E01               	movlw	1
  3692  001BC8  6E20               	movwf	___flmul@aexp^0,c
  3693  001BCA  EFF0  F00D         	goto	l991
  3694  001BCE                     l992:
  3695  001BCE  A022               	btfss	___flmul@prod^0,0,c
  3696  001BD0  EFEC  F00D         	goto	u1171
  3697  001BD4  EFEE  F00D         	goto	u1170
  3698  001BD8                     u1171:
  3699  001BD8  EFF0  F00D         	goto	l991
  3700  001BDC                     u1170:
  3701  001BDC  EFE3  F00D         	goto	l1937
  3702  001BE0                     l991:
  3703  001BE0  5020               	movf	___flmul@aexp^0,w,c
  3704  001BE2  B4D8               	btfsc	status,2,c
  3705  001BE4  EFF6  F00D         	goto	u1181
  3706  001BE8  EFF8  F00D         	goto	u1180
  3707  001BEC                     u1181:
  3708  001BEC  EF1C  F00E         	goto	l1949
  3709  001BF0                     u1180:
  3710  001BF0  0E01               	movlw	1
  3711  001BF2  2622               	addwf	___flmul@prod^0,f,c
  3712  001BF4  0E00               	movlw	0
  3713  001BF6  2223               	addwfc	(___flmul@prod+1)^0,f,c
  3714  001BF8  2224               	addwfc	(___flmul@prod+2)^0,f,c
  3715  001BFA  2225               	addwfc	(___flmul@prod+3)^0,f,c
  3716  001BFC  A025               	btfss	(___flmul@prod+3)^0,0,c
  3717  001BFE  EF03  F00E         	goto	u1191
  3718  001C02  EF05  F00E         	goto	u1190
  3719  001C06                     u1191:
  3720  001C06  EF1C  F00E         	goto	l1949
  3721  001C0A                     u1190:
  3722  001C0A  C022  F017         	movff	___flmul@prod,??___flmul
  3723  001C0E  C023  F018         	movff	___flmul@prod+1,??___flmul+1
  3724  001C12  C024  F019         	movff	___flmul@prod+2,??___flmul+2
  3725  001C16  C025  F01A         	movff	___flmul@prod+3,??___flmul+3
  3726  001C1A  341A               	rlcf	(??___flmul+3)^0,w,c
  3727  001C1C  321A               	rrcf	(??___flmul+3)^0,f,c
  3728  001C1E  3219               	rrcf	(??___flmul+2)^0,f,c
  3729  001C20  3218               	rrcf	(??___flmul+1)^0,f,c
  3730  001C22  3217               	rrcf	??___flmul^0,f,c
  3731  001C24  C017  F022         	movff	??___flmul,___flmul@prod
  3732  001C28  C018  F023         	movff	??___flmul+1,___flmul@prod+1
  3733  001C2C  C019  F024         	movff	??___flmul+2,___flmul@prod+2
  3734  001C30  C01A  F025         	movff	??___flmul+3,___flmul@prod+3
  3735  001C34  4A26               	infsnz	___flmul@temp^0,f,c
  3736  001C36  2A27               	incf	(___flmul@temp+1)^0,f,c
  3737  001C38                     l1949:
  3738  001C38  BE27               	btfsc	(___flmul@temp+1)^0,7,c
  3739  001C3A  EF27  F00E         	goto	u1201
  3740  001C3E  5027               	movf	(___flmul@temp+1)^0,w,c
  3741  001C40  E108               	bnz	u1200
  3742  001C42  2826               	incf	___flmul@temp^0,w,c
  3743  001C44  A0D8               	btfss	status,0,c
  3744  001C46  EF27  F00E         	goto	u1201
  3745  001C4A  EF29  F00E         	goto	u1200
  3746  001C4E                     u1201:
  3747  001C4E  EF33  F00E         	goto	l1953
  3748  001C52                     u1200:
  3749  001C52  0E00               	movlw	0
  3750  001C54  6E22               	movwf	___flmul@prod^0,c
  3751  001C56  0E00               	movlw	0
  3752  001C58  6E23               	movwf	(___flmul@prod+1)^0,c
  3753  001C5A  0E80               	movlw	128
  3754  001C5C  6E24               	movwf	(___flmul@prod+2)^0,c
  3755  001C5E  0E7F               	movlw	127
  3756  001C60  6E25               	movwf	(___flmul@prod+3)^0,c
  3757  001C62  EF61  F00E         	goto	l1965
  3758  001C66                     l1953:
  3759  001C66  BE27               	btfsc	(___flmul@temp+1)^0,7,c
  3760  001C68  EF40  F00E         	goto	u1210
  3761  001C6C  5027               	movf	(___flmul@temp+1)^0,w,c
  3762  001C6E  E106               	bnz	u1211
  3763  001C70  0426               	decf	___flmul@temp^0,w,c
  3764  001C72  B0D8               	btfsc	status,0,c
  3765  001C74  EF3E  F00E         	goto	u1211
  3766  001C78  EF40  F00E         	goto	u1210
  3767  001C7C                     u1211:
  3768  001C7C  EF4C  F00E         	goto	l999
  3769  001C80                     u1210:
  3770  001C80  0E00               	movlw	0
  3771  001C82  6E22               	movwf	___flmul@prod^0,c
  3772  001C84  0E00               	movlw	0
  3773  001C86  6E23               	movwf	(___flmul@prod+1)^0,c
  3774  001C88  0E00               	movlw	0
  3775  001C8A  6E24               	movwf	(___flmul@prod+2)^0,c
  3776  001C8C  0E00               	movlw	0
  3777  001C8E  6E25               	movwf	(___flmul@prod+3)^0,c
  3778  001C90  0E00               	movlw	0
  3779  001C92  6E1B               	movwf	___flmul@sign^0,c
  3780  001C94  EF61  F00E         	goto	l1965
  3781  001C98                     l999:
  3782  001C98  C026  F021         	movff	___flmul@temp,___flmul@bexp
  3783  001C9C  0EFF               	movlw	255
  3784  001C9E  1622               	andwf	___flmul@prod^0,f,c
  3785  001CA0  0EFF               	movlw	255
  3786  001CA2  1623               	andwf	(___flmul@prod+1)^0,f,c
  3787  001CA4  0E7F               	movlw	127
  3788  001CA6  1624               	andwf	(___flmul@prod+2)^0,f,c
  3789  001CA8  0E00               	movlw	0
  3790  001CAA  1625               	andwf	(___flmul@prod+3)^0,f,c
  3791  001CAC  A021               	btfss	___flmul@bexp^0,0,c
  3792  001CAE  EF5B  F00E         	goto	u1221
  3793  001CB2  EF5D  F00E         	goto	u1220
  3794  001CB6                     u1221:
  3795  001CB6  EF5E  F00E         	goto	l1963
  3796  001CBA                     u1220:
  3797  001CBA  8E24               	bsf	(___flmul@prod+2)^0,7,c
  3798  001CBC                     l1963:
  3799  001CBC  90D8               	bcf	status,0,c
  3800  001CBE  3021               	rrcf	___flmul@bexp^0,w,c
  3801  001CC0  6E25               	movwf	(___flmul@prod+3)^0,c
  3802  001CC2                     l1965:
  3803  001CC2  501B               	movf	___flmul@sign^0,w,c
  3804  001CC4  1225               	iorwf	(___flmul@prod+3)^0,f,c
  3805  001CC6  C022  F00F         	movff	___flmul@prod,?___flmul
  3806  001CCA  C023  F010         	movff	___flmul@prod+1,?___flmul+1
  3807  001CCE  C024  F011         	movff	___flmul@prod+2,?___flmul+2
  3808  001CD2  C025  F012         	movff	___flmul@prod+3,?___flmul+3
  3809  001CD6                     l986:
  3810  001CD6  0012               	return		;funcret
  3811  001CD8                     __end_of___flmul:
  3812                           	callstack 0
  3813                           
  3814 ;; *************** function ___awdiv *****************
  3815 ;; Defined at:
  3816 ;;		line 7 in file "C:\Program Files\Microchip\xc8\v2.32\pic\sources\c99\common\awdiv.c"
  3817 ;; Parameters:    Size  Location     Type
  3818 ;;  dividend        2   13[COMRAM] int 
  3819 ;;  divisor         2   15[COMRAM] int 
  3820 ;; Auto vars:     Size  Location     Type
  3821 ;;  quotient        2   19[COMRAM] int 
  3822 ;;  sign            1   18[COMRAM] unsigned char 
  3823 ;;  counter         1   17[COMRAM] unsigned char 
  3824 ;; Return value:  Size  Location     Type
  3825 ;;                  2   13[COMRAM] int 
  3826 ;; Registers used:
  3827 ;;		wreg, status,2, status,0
  3828 ;; Tracked objects:
  3829 ;;		On entry : 0/0
  3830 ;;		On exit  : 0/0
  3831 ;;		Unchanged: 0/0
  3832 ;; Data sizes:     COMRAM   BANK0   BANK1   BANK2   BANK3   BANK4   BANK5   BANK6   BANK7   BANK8   BANK9  BANK10  BANK1
      +1  BANK12  BANK13  BANK14  BANK15
  3833 ;;      Params:         4       0       0       0       0       0       0       0       0       0       0       0       
      +0       0       0       0       0
  3834 ;;      Locals:         4       0       0       0       0       0       0       0       0       0       0       0       
      +0       0       0       0       0
  3835 ;;      Temps:          0       0       0       0       0       0       0       0       0       0       0       0       
      +0       0       0       0       0
  3836 ;;      Totals:         8       0       0       0       0       0       0       0       0       0       0       0       
      +0       0       0       0       0
  3837 ;;Total ram usage:        8 bytes
  3838 ;; Hardware stack levels used: 1
  3839 ;; This function calls:
  3840 ;;		Nothing
  3841 ;; This function is called by:
  3842 ;;		_main
  3843 ;; This function uses a non-reentrant model
  3844 ;;
  3845                           
  3846                           	psect	text15
  3847  002172                     __ptext15:
  3848                           	callstack 0
  3849  002172                     ___awdiv:
  3850                           	callstack 30
  3851  002172  0E00               	movlw	0
  3852  002174  6E13               	movwf	___awdiv@sign^0,c
  3853  002176  BE11               	btfsc	(___awdiv@divisor+1)^0,7,c
  3854  002178  EFC2  F010         	goto	u1230
  3855  00217C  EFC0  F010         	goto	u1231
  3856  002180                     u1231:
  3857  002180  EFC8  F010         	goto	l1979
  3858  002184                     u1230:
  3859  002184  6C10               	negf	___awdiv@divisor^0,c
  3860  002186  1E11               	comf	(___awdiv@divisor+1)^0,f,c
  3861  002188  B0D8               	btfsc	status,0,c
  3862  00218A  2A11               	incf	(___awdiv@divisor+1)^0,f,c
  3863  00218C  0E01               	movlw	1
  3864  00218E  6E13               	movwf	___awdiv@sign^0,c
  3865  002190                     l1979:
  3866  002190  BE0F               	btfsc	(___awdiv@dividend+1)^0,7,c
  3867  002192  EFCF  F010         	goto	u1240
  3868  002196  EFCD  F010         	goto	u1241
  3869  00219A                     u1241:
  3870  00219A  EFD5  F010         	goto	l1985
  3871  00219E                     u1240:
  3872  00219E  6C0E               	negf	___awdiv@dividend^0,c
  3873  0021A0  1E0F               	comf	(___awdiv@dividend+1)^0,f,c
  3874  0021A2  B0D8               	btfsc	status,0,c
  3875  0021A4  2A0F               	incf	(___awdiv@dividend+1)^0,f,c
  3876  0021A6  0E01               	movlw	1
  3877  0021A8  1A13               	xorwf	___awdiv@sign^0,f,c
  3878  0021AA                     l1985:
  3879  0021AA  0E00               	movlw	0
  3880  0021AC  6E15               	movwf	(___awdiv@quotient+1)^0,c
  3881  0021AE  0E00               	movlw	0
  3882  0021B0  6E14               	movwf	___awdiv@quotient^0,c
  3883  0021B2  5010               	movf	___awdiv@divisor^0,w,c
  3884  0021B4  1011               	iorwf	(___awdiv@divisor+1)^0,w,c
  3885  0021B6  B4D8               	btfsc	status,2,c
  3886  0021B8  EFE0  F010         	goto	u1251
  3887  0021BC  EFE2  F010         	goto	u1250
  3888  0021C0                     u1251:
  3889  0021C0  EF0A  F011         	goto	l2007
  3890  0021C4                     u1250:
  3891  0021C4  0E01               	movlw	1
  3892  0021C6  6E12               	movwf	___awdiv@counter^0,c
  3893  0021C8  EFEA  F010         	goto	l1993
  3894  0021CC                     l1991:
  3895  0021CC  90D8               	bcf	status,0,c
  3896  0021CE  3610               	rlcf	___awdiv@divisor^0,f,c
  3897  0021D0  3611               	rlcf	(___awdiv@divisor+1)^0,f,c
  3898  0021D2  2A12               	incf	___awdiv@counter^0,f,c
  3899  0021D4                     l1993:
  3900  0021D4  AE11               	btfss	(___awdiv@divisor+1)^0,7,c
  3901  0021D6  EFEF  F010         	goto	u1261
  3902  0021DA  EFF1  F010         	goto	u1260
  3903  0021DE                     u1261:
  3904  0021DE  EFE6  F010         	goto	l1991
  3905  0021E2                     u1260:
  3906  0021E2                     l1995:
  3907  0021E2  90D8               	bcf	status,0,c
  3908  0021E4  3614               	rlcf	___awdiv@quotient^0,f,c
  3909  0021E6  3615               	rlcf	(___awdiv@quotient+1)^0,f,c
  3910  0021E8  5010               	movf	___awdiv@divisor^0,w,c
  3911  0021EA  5C0E               	subwf	___awdiv@dividend^0,w,c
  3912  0021EC  5011               	movf	(___awdiv@divisor+1)^0,w,c
  3913  0021EE  580F               	subwfb	(___awdiv@dividend+1)^0,w,c
  3914  0021F0  A0D8               	btfss	status,0,c
  3915  0021F2  EFFD  F010         	goto	u1271
  3916  0021F6  EFFF  F010         	goto	u1270
  3917  0021FA                     u1271:
  3918  0021FA  EF04  F011         	goto	l2003
  3919  0021FE                     u1270:
  3920  0021FE  5010               	movf	___awdiv@divisor^0,w,c
  3921  002200  5E0E               	subwf	___awdiv@dividend^0,f,c
  3922  002202  5011               	movf	(___awdiv@divisor+1)^0,w,c
  3923  002204  5A0F               	subwfb	(___awdiv@dividend+1)^0,f,c
  3924  002206  8014               	bsf	___awdiv@quotient^0,0,c
  3925  002208                     l2003:
  3926  002208  90D8               	bcf	status,0,c
  3927  00220A  3211               	rrcf	(___awdiv@divisor+1)^0,f,c
  3928  00220C  3210               	rrcf	___awdiv@divisor^0,f,c
  3929  00220E  2E12               	decfsz	___awdiv@counter^0,f,c
  3930  002210  EFF1  F010         	goto	l1995
  3931  002214                     l2007:
  3932  002214  5013               	movf	___awdiv@sign^0,w,c
  3933  002216  B4D8               	btfsc	status,2,c
  3934  002218  EF10  F011         	goto	u1281
  3935  00221C  EF12  F011         	goto	u1280
  3936  002220                     u1281:
  3937  002220  EF16  F011         	goto	l2011
  3938  002224                     u1280:
  3939  002224  6C14               	negf	___awdiv@quotient^0,c
  3940  002226  1E15               	comf	(___awdiv@quotient+1)^0,f,c
  3941  002228  B0D8               	btfsc	status,0,c
  3942  00222A  2A15               	incf	(___awdiv@quotient+1)^0,f,c
  3943  00222C                     l2011:
  3944  00222C  C014  F00E         	movff	___awdiv@quotient,?___awdiv
  3945  002230  C015  F00F         	movff	___awdiv@quotient+1,?___awdiv+1
  3946  002234  0012               	return		;funcret
  3947  002236                     __end_of___awdiv:
  3948                           	callstack 0
  3949                           
  3950 ;; *************** function _SYSTEM_Initialize *****************
  3951 ;; Defined at:
  3952 ;;		line 50 in file "mcc_generated_files/mcc.c"
  3953 ;; Parameters:    Size  Location     Type
  3954 ;;		None
  3955 ;; Auto vars:     Size  Location     Type
  3956 ;;		None
  3957 ;; Return value:  Size  Location     Type
  3958 ;;                  1    wreg      void 
  3959 ;; Registers used:
  3960 ;;		wreg, status,2, status,0, cstack
  3961 ;; Tracked objects:
  3962 ;;		On entry : 0/0
  3963 ;;		On exit  : 0/0
  3964 ;;		Unchanged: 0/0
  3965 ;; Data sizes:     COMRAM   BANK0   BANK1   BANK2   BANK3   BANK4   BANK5   BANK6   BANK7   BANK8   BANK9  BANK10  BANK1
      +1  BANK12  BANK13  BANK14  BANK15
  3966 ;;      Params:         0       0       0       0       0       0       0       0       0       0       0       0       
      +0       0       0       0       0
  3967 ;;      Locals:         0       0       0       0       0       0       0       0       0       0       0       0       
      +0       0       0       0       0
  3968 ;;      Temps:          0       0       0       0       0       0       0       0       0       0       0       0       
      +0       0       0       0       0
  3969 ;;      Totals:         0       0       0       0       0       0       0       0       0       0       0       0       
      +0       0       0       0       0
  3970 ;;Total ram usage:        0 bytes
  3971 ;; Hardware stack levels used: 1
  3972 ;; Hardware stack levels required when called: 2
  3973 ;; This function calls:
  3974 ;;		_OSCILLATOR_Initialize
  3975 ;;		_PIN_MANAGER_Initialize
  3976 ;;		_PMD_Initialize
  3977 ;;		_UART1_Initialize
  3978 ;; This function is called by:
  3979 ;;		_main
  3980 ;; This function uses a non-reentrant model
  3981 ;;
  3982                           
  3983                           	psect	text16
  3984  00251A                     __ptext16:
  3985                           	callstack 0
  3986  00251A                     _SYSTEM_Initialize:
  3987                           	callstack 28
  3988  00251A                     
  3989                           ;mcc_generated_files/mcc.c: 52:     PMD_Initialize();
  3990  00251A  EC4E  F012         	call	_PMD_Initialize	;wreg free
  3991                           
  3992                           ;mcc_generated_files/mcc.c: 53:     PIN_MANAGER_Initialize();
  3993  00251E  EC02  F012         	call	_PIN_MANAGER_Initialize	;wreg free
  3994                           
  3995                           ;mcc_generated_files/mcc.c: 54:     OSCILLATOR_Initialize();
  3996  002522  EC6D  F012         	call	_OSCILLATOR_Initialize	;wreg free
  3997  002526                     
  3998                           ;mcc_generated_files/mcc.c: 55:     UART1_Initialize();
  3999  002526  EC6D  F011         	call	_UART1_Initialize	;wreg free
  4000  00252A  0012               	return		;funcret
  4001  00252C                     __end_of_SYSTEM_Initialize:
  4002                           	callstack 0
  4003                           
  4004 ;; *************** function _UART1_Initialize *****************
  4005 ;; Defined at:
  4006 ;;		line 66 in file "mcc_generated_files/uart1.c"
  4007 ;; Parameters:    Size  Location     Type
  4008 ;;		None
  4009 ;; Auto vars:     Size  Location     Type
  4010 ;;		None
  4011 ;; Return value:  Size  Location     Type
  4012 ;;                  1    wreg      void 
  4013 ;; Registers used:
  4014 ;;		wreg, status,2, status,0, cstack
  4015 ;; Tracked objects:
  4016 ;;		On entry : 0/0
  4017 ;;		On exit  : 0/0
  4018 ;;		Unchanged: 0/0
  4019 ;; Data sizes:     COMRAM   BANK0   BANK1   BANK2   BANK3   BANK4   BANK5   BANK6   BANK7   BANK8   BANK9  BANK10  BANK1
      +1  BANK12  BANK13  BANK14  BANK15
  4020 ;;      Params:         0       0       0       0       0       0       0       0       0       0       0       0       
      +0       0       0       0       0
  4021 ;;      Locals:         0       0       0       0       0       0       0       0       0       0       0       0       
      +0       0       0       0       0
  4022 ;;      Temps:          0       0       0       0       0       0       0       0       0       0       0       0       
      +0       0       0       0       0
  4023 ;;      Totals:         0       0       0       0       0       0       0       0       0       0       0       0       
      +0       0       0       0       0
  4024 ;;Total ram usage:        0 bytes
  4025 ;; Hardware stack levels used: 1
  4026 ;; Hardware stack levels required when called: 1
  4027 ;; This function calls:
  4028 ;;		_UART1_SetErrorHandler
  4029 ;;		_UART1_SetFramingErrorHandler
  4030 ;;		_UART1_SetOverrunErrorHandler
  4031 ;; This function is called by:
  4032 ;;		_SYSTEM_Initialize
  4033 ;; This function uses a non-reentrant model
  4034 ;;
  4035                           
  4036                           	psect	text17
  4037  0022DA                     __ptext17:
  4038                           	callstack 0
  4039  0022DA                     _UART1_Initialize:
  4040                           	callstack 28
  4041  0022DA                     
  4042                           ;mcc_generated_files/uart1.c: 73:     U1P1L = 0x00;
  4043  0022DA  0E00               	movlw	0
  4044  0022DC  013D               	movlb	61	; () banked
  4045  0022DE  6FEC               	movwf	236,b	;volatile
  4046                           
  4047                           ;mcc_generated_files/uart1.c: 76:     U1P1H = 0x00;
  4048  0022E0  0E00               	movlw	0
  4049  0022E2  6FED               	movwf	237,b	;volatile
  4050                           
  4051                           ;mcc_generated_files/uart1.c: 79:     U1P2L = 0x00;
  4052  0022E4  0E00               	movlw	0
  4053  0022E6  6FEE               	movwf	238,b	;volatile
  4054                           
  4055                           ;mcc_generated_files/uart1.c: 82:     U1P2H = 0x00;
  4056  0022E8  0E00               	movlw	0
  4057  0022EA  6FEF               	movwf	239,b	;volatile
  4058                           
  4059                           ;mcc_generated_files/uart1.c: 85:     U1P3L = 0x00;
  4060  0022EC  0E00               	movlw	0
  4061  0022EE  6FF0               	movwf	240,b	;volatile
  4062                           
  4063                           ;mcc_generated_files/uart1.c: 88:     U1P3H = 0x00;
  4064  0022F0  0E00               	movlw	0
  4065  0022F2  6FF1               	movwf	241,b	;volatile
  4066                           
  4067                           ;mcc_generated_files/uart1.c: 91:     U1CON0 = 0xB0;
  4068  0022F4  0EB0               	movlw	176
  4069  0022F6  6FF2               	movwf	242,b	;volatile
  4070                           
  4071                           ;mcc_generated_files/uart1.c: 94:     U1CON1 = 0x80;
  4072  0022F8  0E80               	movlw	128
  4073  0022FA  6FF3               	movwf	243,b	;volatile
  4074                           
  4075                           ;mcc_generated_files/uart1.c: 97:     U1CON2 = 0x00;
  4076  0022FC  0E00               	movlw	0
  4077  0022FE  6FF4               	movwf	244,b	;volatile
  4078                           
  4079                           ;mcc_generated_files/uart1.c: 100:     U1BRGL = 0x19;
  4080  002300  0E19               	movlw	25
  4081  002302  6FF5               	movwf	245,b	;volatile
  4082                           
  4083                           ;mcc_generated_files/uart1.c: 103:     U1BRGH = 0x00;
  4084  002304  0E00               	movlw	0
  4085  002306  6FF6               	movwf	246,b	;volatile
  4086                           
  4087                           ;mcc_generated_files/uart1.c: 106:     U1FIFO = 0x00;
  4088  002308  0E00               	movlw	0
  4089  00230A  6FF7               	movwf	247,b	;volatile
  4090                           
  4091                           ;mcc_generated_files/uart1.c: 109:     U1UIR = 0x00;
  4092  00230C  0E00               	movlw	0
  4093  00230E  6FF8               	movwf	248,b	;volatile
  4094                           
  4095                           ;mcc_generated_files/uart1.c: 112:     U1ERRIR = 0x00;
  4096  002310  0E00               	movlw	0
  4097  002312  6FF9               	movwf	249,b	;volatile
  4098                           
  4099                           ;mcc_generated_files/uart1.c: 115:     U1ERRIE = 0x00;
  4100  002314  0E00               	movlw	0
  4101  002316  6FFA               	movwf	250,b	;volatile
  4102  002318                     
  4103                           ; BSR set to: 61
  4104                           ;mcc_generated_files/uart1.c: 118:     UART1_SetFramingErrorHandler(UART1_DefaultFraming
      +                          ErrorHandler);
  4105  002318  0E00               	movlw	0
  4106  00231A  6E01               	movwf	UART1_SetFramingErrorHandler@interruptHandler^0,c
  4107  00231C  0E00               	movlw	0
  4108  00231E  6E02               	movwf	(UART1_SetFramingErrorHandler@interruptHandler+1)^0,c
  4109  002320  EC9B  F012         	call	_UART1_SetFramingErrorHandler	;wreg free
  4110  002324                     
  4111                           ;mcc_generated_files/uart1.c: 119:     UART1_SetOverrunErrorHandler(UART1_DefaultOverrun
      +                          ErrorHandler);
  4112  002324  0E00               	movlw	0
  4113  002326  6E01               	movwf	UART1_SetOverrunErrorHandler@interruptHandler^0,c
  4114  002328  0E00               	movlw	0
  4115  00232A  6E02               	movwf	(UART1_SetOverrunErrorHandler@interruptHandler+1)^0,c
  4116  00232C  EC96  F012         	call	_UART1_SetOverrunErrorHandler	;wreg free
  4117  002330                     
  4118                           ;mcc_generated_files/uart1.c: 120:     UART1_SetErrorHandler(UART1_DefaultErrorHandler);
  4119  002330  0E00               	movlw	0
  4120  002332  6E01               	movwf	UART1_SetErrorHandler@interruptHandler^0,c
  4121  002334  0E00               	movlw	0
  4122  002336  6E02               	movwf	(UART1_SetErrorHandler@interruptHandler+1)^0,c
  4123  002338  ECA0  F012         	call	_UART1_SetErrorHandler	;wreg free
  4124  00233C                     
  4125                           ;mcc_generated_files/uart1.c: 122:     uart1RxLastError.status = 0;
  4126  00233C  0E00               	movlw	0
  4127  00233E  6E54               	movwf	_uart1RxLastError^0,c	;volatile
  4128  002340  0012               	return		;funcret
  4129  002342                     __end_of_UART1_Initialize:
  4130                           	callstack 0
  4131                           
  4132 ;; *************** function _UART1_SetOverrunErrorHandler *****************
  4133 ;; Defined at:
  4134 ;;		line 194 in file "mcc_generated_files/uart1.c"
  4135 ;; Parameters:    Size  Location     Type
  4136 ;;  interruptHan    2    0[COMRAM] PTR FTN()void 
  4137 ;;		 -> UART1_DefaultOverrunErrorHandler(1), 
  4138 ;; Auto vars:     Size  Location     Type
  4139 ;;		None
  4140 ;; Return value:  Size  Location     Type
  4141 ;;                  1    wreg      void 
  4142 ;; Registers used:
  4143 ;;		wreg, status,2, status,0
  4144 ;; Tracked objects:
  4145 ;;		On entry : 0/0
  4146 ;;		On exit  : 0/0
  4147 ;;		Unchanged: 0/0
  4148 ;; Data sizes:     COMRAM   BANK0   BANK1   BANK2   BANK3   BANK4   BANK5   BANK6   BANK7   BANK8   BANK9  BANK10  BANK1
      +1  BANK12  BANK13  BANK14  BANK15
  4149 ;;      Params:         2       0       0       0       0       0       0       0       0       0       0       0       
      +0       0       0       0       0
  4150 ;;      Locals:         0       0       0       0       0       0       0       0       0       0       0       0       
      +0       0       0       0       0
  4151 ;;      Temps:          0       0       0       0       0       0       0       0       0       0       0       0       
      +0       0       0       0       0
  4152 ;;      Totals:         2       0       0       0       0       0       0       0       0       0       0       0       
      +0       0       0       0       0
  4153 ;;Total ram usage:        2 bytes
  4154 ;; Hardware stack levels used: 1
  4155 ;; This function calls:
  4156 ;;		Nothing
  4157 ;; This function is called by:
  4158 ;;		_UART1_Initialize
  4159 ;; This function uses a non-reentrant model
  4160 ;;
  4161                           
  4162                           	psect	text18
  4163  00252C                     __ptext18:
  4164                           	callstack 0
  4165  00252C                     _UART1_SetOverrunErrorHandler:
  4166                           	callstack 28
  4167  00252C                     
  4168                           ;mcc_generated_files/uart1.c: 195:     UART1_OverrunErrorHandler = interruptHandler;
  4169  00252C  C001  F072         	movff	UART1_SetOverrunErrorHandler@interruptHandler,_UART1_OverrunErrorHandler
  4170  002530  C002  F073         	movff	UART1_SetOverrunErrorHandler@interruptHandler+1,_UART1_OverrunErrorHandler+1
  4171  002534  0012               	return		;funcret
  4172  002536                     __end_of_UART1_SetOverrunErrorHandler:
  4173                           	callstack 0
  4174                           
  4175 ;; *************** function _UART1_SetFramingErrorHandler *****************
  4176 ;; Defined at:
  4177 ;;		line 190 in file "mcc_generated_files/uart1.c"
  4178 ;; Parameters:    Size  Location     Type
  4179 ;;  interruptHan    2    0[COMRAM] PTR FTN()void 
  4180 ;;		 -> UART1_DefaultFramingErrorHandler(1), 
  4181 ;; Auto vars:     Size  Location     Type
  4182 ;;		None
  4183 ;; Return value:  Size  Location     Type
  4184 ;;                  1    wreg      void 
  4185 ;; Registers used:
  4186 ;;		wreg, status,2, status,0
  4187 ;; Tracked objects:
  4188 ;;		On entry : 0/0
  4189 ;;		On exit  : 0/0
  4190 ;;		Unchanged: 0/0
  4191 ;; Data sizes:     COMRAM   BANK0   BANK1   BANK2   BANK3   BANK4   BANK5   BANK6   BANK7   BANK8   BANK9  BANK10  BANK1
      +1  BANK12  BANK13  BANK14  BANK15
  4192 ;;      Params:         2       0       0       0       0       0       0       0       0       0       0       0       
      +0       0       0       0       0
  4193 ;;      Locals:         0       0       0       0       0       0       0       0       0       0       0       0       
      +0       0       0       0       0
  4194 ;;      Temps:          0       0       0       0       0       0       0       0       0       0       0       0       
      +0       0       0       0       0
  4195 ;;      Totals:         2       0       0       0       0       0       0       0       0       0       0       0       
      +0       0       0       0       0
  4196 ;;Total ram usage:        2 bytes
  4197 ;; Hardware stack levels used: 1
  4198 ;; This function calls:
  4199 ;;		Nothing
  4200 ;; This function is called by:
  4201 ;;		_UART1_Initialize
  4202 ;; This function uses a non-reentrant model
  4203 ;;
  4204                           
  4205                           	psect	text19
  4206  002536                     __ptext19:
  4207                           	callstack 0
  4208  002536                     _UART1_SetFramingErrorHandler:
  4209                           	callstack 28
  4210  002536                     
  4211                           ;mcc_generated_files/uart1.c: 191:     UART1_FramingErrorHandler = interruptHandler;
  4212  002536  C001  F074         	movff	UART1_SetFramingErrorHandler@interruptHandler,_UART1_FramingErrorHandler
  4213  00253A  C002  F075         	movff	UART1_SetFramingErrorHandler@interruptHandler+1,_UART1_FramingErrorHandler+1
  4214  00253E  0012               	return		;funcret
  4215  002540                     __end_of_UART1_SetFramingErrorHandler:
  4216                           	callstack 0
  4217                           
  4218 ;; *************** function _UART1_SetErrorHandler *****************
  4219 ;; Defined at:
  4220 ;;		line 198 in file "mcc_generated_files/uart1.c"
  4221 ;; Parameters:    Size  Location     Type
  4222 ;;  interruptHan    2    0[COMRAM] PTR FTN()void 
  4223 ;;		 -> UART1_DefaultErrorHandler(1), 
  4224 ;; Auto vars:     Size  Location     Type
  4225 ;;		None
  4226 ;; Return value:  Size  Location     Type
  4227 ;;                  1    wreg      void 
  4228 ;; Registers used:
  4229 ;;		wreg, status,2, status,0
  4230 ;; Tracked objects:
  4231 ;;		On entry : 0/0
  4232 ;;		On exit  : 0/0
  4233 ;;		Unchanged: 0/0
  4234 ;; Data sizes:     COMRAM   BANK0   BANK1   BANK2   BANK3   BANK4   BANK5   BANK6   BANK7   BANK8   BANK9  BANK10  BANK1
      +1  BANK12  BANK13  BANK14  BANK15
  4235 ;;      Params:         2       0       0       0       0       0       0       0       0       0       0       0       
      +0       0       0       0       0
  4236 ;;      Locals:         0       0       0       0       0       0       0       0       0       0       0       0       
      +0       0       0       0       0
  4237 ;;      Temps:          0       0       0       0       0       0       0       0       0       0       0       0       
      +0       0       0       0       0
  4238 ;;      Totals:         2       0       0       0       0       0       0       0       0       0       0       0       
      +0       0       0       0       0
  4239 ;;Total ram usage:        2 bytes
  4240 ;; Hardware stack levels used: 1
  4241 ;; This function calls:
  4242 ;;		Nothing
  4243 ;; This function is called by:
  4244 ;;		_UART1_Initialize
  4245 ;; This function uses a non-reentrant model
  4246 ;;
  4247                           
  4248                           	psect	text20
  4249  002540                     __ptext20:
  4250                           	callstack 0
  4251  002540                     _UART1_SetErrorHandler:
  4252                           	callstack 28
  4253  002540                     
  4254                           ;mcc_generated_files/uart1.c: 199:     UART1_ErrorHandler = interruptHandler;
  4255  002540  C001  F070         	movff	UART1_SetErrorHandler@interruptHandler,_UART1_ErrorHandler
  4256  002544  C002  F071         	movff	UART1_SetErrorHandler@interruptHandler+1,_UART1_ErrorHandler+1
  4257  002548  0012               	return		;funcret
  4258  00254A                     __end_of_UART1_SetErrorHandler:
  4259                           	callstack 0
  4260                           
  4261 ;; *************** function _PMD_Initialize *****************
  4262 ;; Defined at:
  4263 ;;		line 72 in file "mcc_generated_files/mcc.c"
  4264 ;; Parameters:    Size  Location     Type
  4265 ;;		None
  4266 ;; Auto vars:     Size  Location     Type
  4267 ;;		None
  4268 ;; Return value:  Size  Location     Type
  4269 ;;                  1    wreg      void 
  4270 ;; Registers used:
  4271 ;;		wreg, status,2
  4272 ;; Tracked objects:
  4273 ;;		On entry : 0/0
  4274 ;;		On exit  : 0/0
  4275 ;;		Unchanged: 0/0
  4276 ;; Data sizes:     COMRAM   BANK0   BANK1   BANK2   BANK3   BANK4   BANK5   BANK6   BANK7   BANK8   BANK9  BANK10  BANK1
      +1  BANK12  BANK13  BANK14  BANK15
  4277 ;;      Params:         0       0       0       0       0       0       0       0       0       0       0       0       
      +0       0       0       0       0
  4278 ;;      Locals:         0       0       0       0       0       0       0       0       0       0       0       0       
      +0       0       0       0       0
  4279 ;;      Temps:          0       0       0       0       0       0       0       0       0       0       0       0       
      +0       0       0       0       0
  4280 ;;      Totals:         0       0       0       0       0       0       0       0       0       0       0       0       
      +0       0       0       0       0
  4281 ;;Total ram usage:        0 bytes
  4282 ;; Hardware stack levels used: 1
  4283 ;; This function calls:
  4284 ;;		Nothing
  4285 ;; This function is called by:
  4286 ;;		_SYSTEM_Initialize
  4287 ;; This function uses a non-reentrant model
  4288 ;;
  4289                           
  4290                           	psect	text21
  4291  00249C                     __ptext21:
  4292                           	callstack 0
  4293  00249C                     _PMD_Initialize:
  4294                           	callstack 29
  4295  00249C                     
  4296                           ;mcc_generated_files/mcc.c: 75:     PMD0 = 0x00;
  4297  00249C  0E00               	movlw	0
  4298  00249E  0139               	movlb	57	; () banked
  4299  0024A0  6FC0               	movwf	192,b	;volatile
  4300                           
  4301                           ;mcc_generated_files/mcc.c: 77:     PMD1 = 0x00;
  4302  0024A2  0E00               	movlw	0
  4303  0024A4  6FC1               	movwf	193,b	;volatile
  4304                           
  4305                           ;mcc_generated_files/mcc.c: 79:     PMD2 = 0x00;
  4306  0024A6  0E00               	movlw	0
  4307  0024A8  6FC2               	movwf	194,b	;volatile
  4308                           
  4309                           ;mcc_generated_files/mcc.c: 81:     PMD3 = 0x00;
  4310  0024AA  0E00               	movlw	0
  4311  0024AC  6FC3               	movwf	195,b	;volatile
  4312                           
  4313                           ;mcc_generated_files/mcc.c: 83:     PMD4 = 0x00;
  4314  0024AE  0E00               	movlw	0
  4315  0024B0  6FC4               	movwf	196,b	;volatile
  4316                           
  4317                           ;mcc_generated_files/mcc.c: 85:     PMD5 = 0x00;
  4318  0024B2  0E00               	movlw	0
  4319  0024B4  6FC5               	movwf	197,b	;volatile
  4320                           
  4321                           ;mcc_generated_files/mcc.c: 87:     PMD6 = 0x00;
  4322  0024B6  0E00               	movlw	0
  4323  0024B8  6FC6               	movwf	198,b	;volatile
  4324                           
  4325                           ;mcc_generated_files/mcc.c: 89:     PMD7 = 0x00;
  4326  0024BA  0E00               	movlw	0
  4327  0024BC  6FC7               	movwf	199,b	;volatile
  4328  0024BE                     
  4329                           ; BSR set to: 57
  4330  0024BE  0012               	return		;funcret
  4331  0024C0                     __end_of_PMD_Initialize:
  4332                           	callstack 0
  4333                           
  4334 ;; *************** function _PIN_MANAGER_Initialize *****************
  4335 ;; Defined at:
  4336 ;;		line 55 in file "mcc_generated_files/pin_manager.c"
  4337 ;; Parameters:    Size  Location     Type
  4338 ;;		None
  4339 ;; Auto vars:     Size  Location     Type
  4340 ;;		None
  4341 ;; Return value:  Size  Location     Type
  4342 ;;                  1    wreg      void 
  4343 ;; Registers used:
  4344 ;;		wreg, status,2
  4345 ;; Tracked objects:
  4346 ;;		On entry : 0/0
  4347 ;;		On exit  : 0/0
  4348 ;;		Unchanged: 0/0
  4349 ;; Data sizes:     COMRAM   BANK0   BANK1   BANK2   BANK3   BANK4   BANK5   BANK6   BANK7   BANK8   BANK9  BANK10  BANK1
      +1  BANK12  BANK13  BANK14  BANK15
  4350 ;;      Params:         0       0       0       0       0       0       0       0       0       0       0       0       
      +0       0       0       0       0
  4351 ;;      Locals:         0       0       0       0       0       0       0       0       0       0       0       0       
      +0       0       0       0       0
  4352 ;;      Temps:          0       0       0       0       0       0       0       0       0       0       0       0       
      +0       0       0       0       0
  4353 ;;      Totals:         0       0       0       0       0       0       0       0       0       0       0       0       
      +0       0       0       0       0
  4354 ;;Total ram usage:        0 bytes
  4355 ;; Hardware stack levels used: 1
  4356 ;; This function calls:
  4357 ;;		Nothing
  4358 ;; This function is called by:
  4359 ;;		_SYSTEM_Initialize
  4360 ;; This function uses a non-reentrant model
  4361 ;;
  4362                           
  4363                           	psect	text22
  4364  002404                     __ptext22:
  4365                           	callstack 0
  4366  002404                     _PIN_MANAGER_Initialize:
  4367                           	callstack 29
  4368  002404                     
  4369                           ;mcc_generated_files/pin_manager.c: 60:     LATA = 0x00;
  4370  002404  0E00               	movlw	0
  4371  002406  6EBA               	movwf	186,c	;volatile
  4372                           
  4373                           ;mcc_generated_files/pin_manager.c: 61:     LATB = 0x00;
  4374  002408  0E00               	movlw	0
  4375  00240A  6EBB               	movwf	187,c	;volatile
  4376                           
  4377                           ;mcc_generated_files/pin_manager.c: 62:     LATC = 0x00;
  4378  00240C  0E00               	movlw	0
  4379  00240E  6EBC               	movwf	188,c	;volatile
  4380                           
  4381                           ;mcc_generated_files/pin_manager.c: 67:     TRISA = 0xFE;
  4382  002410  0EFE               	movlw	254
  4383  002412  6EC2               	movwf	194,c	;volatile
  4384  002414                     
  4385                           ;mcc_generated_files/pin_manager.c: 68:     TRISB = 0xFF;
  4386  002414  68C3               	setf	195,c	;volatile
  4387                           
  4388                           ;mcc_generated_files/pin_manager.c: 69:     TRISC = 0xBF;
  4389  002416  0EBF               	movlw	191
  4390  002418  6EC4               	movwf	196,c	;volatile
  4391                           
  4392                           ;mcc_generated_files/pin_manager.c: 74:     ANSELC = 0x7F;
  4393  00241A  0E7F               	movlw	127
  4394  00241C  013A               	movlb	58	; () banked
  4395  00241E  6F60               	movwf	96,b	;volatile
  4396                           
  4397                           ;mcc_generated_files/pin_manager.c: 75:     ANSELB = 0xBD;
  4398  002420  0EBD               	movlw	189
  4399  002422  6F50               	movwf	80,b	;volatile
  4400  002424                     
  4401                           ; BSR set to: 58
  4402                           ;mcc_generated_files/pin_manager.c: 76:     ANSELA = 0xFF;
  4403  002424  6940               	setf	64,b	;volatile
  4404                           
  4405                           ;mcc_generated_files/pin_manager.c: 81:     WPUE = 0x00;
  4406  002426  0E00               	movlw	0
  4407  002428  6F81               	movwf	129,b	;volatile
  4408                           
  4409                           ;mcc_generated_files/pin_manager.c: 82:     WPUB = 0x00;
  4410  00242A  0E00               	movlw	0
  4411  00242C  6F51               	movwf	81,b	;volatile
  4412                           
  4413                           ;mcc_generated_files/pin_manager.c: 83:     WPUA = 0x00;
  4414  00242E  0E00               	movlw	0
  4415  002430  6F41               	movwf	65,b	;volatile
  4416                           
  4417                           ;mcc_generated_files/pin_manager.c: 84:     WPUC = 0x00;
  4418  002432  0E00               	movlw	0
  4419  002434  6F61               	movwf	97,b	;volatile
  4420                           
  4421                           ;mcc_generated_files/pin_manager.c: 89:     ODCONA = 0x00;
  4422  002436  0E00               	movlw	0
  4423  002438  6F42               	movwf	66,b	;volatile
  4424                           
  4425                           ;mcc_generated_files/pin_manager.c: 90:     ODCONB = 0x00;
  4426  00243A  0E00               	movlw	0
  4427  00243C  6F52               	movwf	82,b	;volatile
  4428                           
  4429                           ;mcc_generated_files/pin_manager.c: 91:     ODCONC = 0x00;
  4430  00243E  0E00               	movlw	0
  4431  002440  6F62               	movwf	98,b	;volatile
  4432  002442                     
  4433                           ; BSR set to: 58
  4434                           ;mcc_generated_files/pin_manager.c: 96:     SLRCONA = 0xFF;
  4435  002442  6943               	setf	67,b	;volatile
  4436  002444                     
  4437                           ; BSR set to: 58
  4438                           ;mcc_generated_files/pin_manager.c: 97:     SLRCONB = 0xFF;
  4439  002444  6953               	setf	83,b	;volatile
  4440  002446                     
  4441                           ; BSR set to: 58
  4442                           ;mcc_generated_files/pin_manager.c: 98:     SLRCONC = 0xFF;
  4443  002446  6963               	setf	99,b	;volatile
  4444  002448                     
  4445                           ; BSR set to: 58
  4446                           ;mcc_generated_files/pin_manager.c: 103:     INLVLA = 0xFF;
  4447  002448  6944               	setf	68,b	;volatile
  4448  00244A                     
  4449                           ; BSR set to: 58
  4450                           ;mcc_generated_files/pin_manager.c: 104:     INLVLB = 0xFF;
  4451  00244A  6954               	setf	84,b	;volatile
  4452  00244C                     
  4453                           ; BSR set to: 58
  4454                           ;mcc_generated_files/pin_manager.c: 105:     INLVLC = 0xFF;
  4455  00244C  6964               	setf	100,b	;volatile
  4456                           
  4457                           ;mcc_generated_files/pin_manager.c: 106:     INLVLE = 0x08;
  4458  00244E  0E08               	movlw	8
  4459  002450  6F84               	movwf	132,b	;volatile
  4460                           
  4461                           ;mcc_generated_files/pin_manager.c: 115:     RC6PPS = 0x13;
  4462  002452  0E13               	movlw	19
  4463  002454  6F16               	movwf	22,b	;volatile
  4464                           
  4465                           ;mcc_generated_files/pin_manager.c: 116:     U1RXPPS = 0x17;
  4466  002456  0E17               	movlw	23
  4467  002458  6FE7               	movwf	231,b	;volatile
  4468  00245A                     
  4469                           ; BSR set to: 58
  4470  00245A  0012               	return		;funcret
  4471  00245C                     __end_of_PIN_MANAGER_Initialize:
  4472                           	callstack 0
  4473                           
  4474 ;; *************** function _OSCILLATOR_Initialize *****************
  4475 ;; Defined at:
  4476 ;;		line 58 in file "mcc_generated_files/mcc.c"
  4477 ;; Parameters:    Size  Location     Type
  4478 ;;		None
  4479 ;; Auto vars:     Size  Location     Type
  4480 ;;		None
  4481 ;; Return value:  Size  Location     Type
  4482 ;;                  1    wreg      void 
  4483 ;; Registers used:
  4484 ;;		wreg, status,2
  4485 ;; Tracked objects:
  4486 ;;		On entry : 0/0
  4487 ;;		On exit  : 0/0
  4488 ;;		Unchanged: 0/0
  4489 ;; Data sizes:     COMRAM   BANK0   BANK1   BANK2   BANK3   BANK4   BANK5   BANK6   BANK7   BANK8   BANK9  BANK10  BANK1
      +1  BANK12  BANK13  BANK14  BANK15
  4490 ;;      Params:         0       0       0       0       0       0       0       0       0       0       0       0       
      +0       0       0       0       0
  4491 ;;      Locals:         0       0       0       0       0       0       0       0       0       0       0       0       
      +0       0       0       0       0
  4492 ;;      Temps:          0       0       0       0       0       0       0       0       0       0       0       0       
      +0       0       0       0       0
  4493 ;;      Totals:         0       0       0       0       0       0       0       0       0       0       0       0       
      +0       0       0       0       0
  4494 ;;Total ram usage:        0 bytes
  4495 ;; Hardware stack levels used: 1
  4496 ;; This function calls:
  4497 ;;		Nothing
  4498 ;; This function is called by:
  4499 ;;		_SYSTEM_Initialize
  4500 ;; This function uses a non-reentrant model
  4501 ;;
  4502                           
  4503                           	psect	text23
  4504  0024DA                     __ptext23:
  4505                           	callstack 0
  4506  0024DA                     _OSCILLATOR_Initialize:
  4507                           	callstack 29
  4508  0024DA                     
  4509                           ;mcc_generated_files/mcc.c: 61:     OSCCON1 = 0x70;
  4510  0024DA  0E70               	movlw	112
  4511  0024DC  0139               	movlb	57	; () banked
  4512  0024DE  6FD9               	movwf	217,b	;volatile
  4513                           
  4514                           ;mcc_generated_files/mcc.c: 63:     OSCCON3 = 0x00;
  4515  0024E0  0E00               	movlw	0
  4516  0024E2  6FDB               	movwf	219,b	;volatile
  4517                           
  4518                           ;mcc_generated_files/mcc.c: 65:     OSCEN = 0x00;
  4519  0024E4  0E00               	movlw	0
  4520  0024E6  6FDD               	movwf	221,b	;volatile
  4521                           
  4522                           ;mcc_generated_files/mcc.c: 67:     OSCFRQ = 0x02;
  4523  0024E8  0E02               	movlw	2
  4524  0024EA  6FDF               	movwf	223,b	;volatile
  4525                           
  4526                           ;mcc_generated_files/mcc.c: 69:     OSCTUNE = 0x00;
  4527  0024EC  0E00               	movlw	0
  4528  0024EE  6FDE               	movwf	222,b	;volatile
  4529  0024F0                     
  4530                           ; BSR set to: 57
  4531  0024F0  0012               	return		;funcret
  4532  0024F2                     __end_of_OSCILLATOR_Initialize:
  4533                           	callstack 0
  4534                           
  4535 ;; *************** function _HV_Read *****************
  4536 ;; Defined at:
  4537 ;;		line 174 in file "main.c"
  4538 ;; Parameters:    Size  Location     Type
  4539 ;;		None
  4540 ;; Auto vars:     Size  Location     Type
  4541 ;;		None
  4542 ;; Return value:  Size  Location     Type
  4543 ;;                  1    wreg      unsigned char 
  4544 ;; Registers used:
  4545 ;;		wreg
  4546 ;; Tracked objects:
  4547 ;;		On entry : 0/0
  4548 ;;		On exit  : 0/0
  4549 ;;		Unchanged: 0/0
  4550 ;; Data sizes:     COMRAM   BANK0   BANK1   BANK2   BANK3   BANK4   BANK5   BANK6   BANK7   BANK8   BANK9  BANK10  BANK1
      +1  BANK12  BANK13  BANK14  BANK15
  4551 ;;      Params:         0       0       0       0       0       0       0       0       0       0       0       0       
      +0       0       0       0       0
  4552 ;;      Locals:         0       0       0       0       0       0       0       0       0       0       0       0       
      +0       0       0       0       0
  4553 ;;      Temps:          0       0       0       0       0       0       0       0       0       0       0       0       
      +0       0       0       0       0
  4554 ;;      Totals:         0       0       0       0       0       0       0       0       0       0       0       0       
      +0       0       0       0       0
  4555 ;;Total ram usage:        0 bytes
  4556 ;; Hardware stack levels used: 1
  4557 ;; This function calls:
  4558 ;;		Nothing
  4559 ;; This function is called by:
  4560 ;;		_main
  4561 ;; This function uses a non-reentrant model
  4562 ;;
  4563                           
  4564                           	psect	text24
  4565  0024F2                     __ptext24:
  4566                           	callstack 0
  4567  0024F2                     _HV_Read:
  4568                           	callstack 30
  4569  0024F2                     
  4570                           ;main.c: 176:     return PORTBbits.RB1;
  4571  0024F2  B2CB               	btfsc	203,1,c	;volatile
  4572  0024F4  EF7E  F012         	goto	u1001
  4573  0024F8  EF81  F012         	goto	u1000
  4574  0024FC                     u1001:
  4575  0024FC  0E01               	movlw	1
  4576  0024FE  EF82  F012         	goto	u1006
  4577  002502                     u1000:
  4578  002502  0E00               	movlw	0
  4579  002504                     u1006:
  4580  002504  0012               	return		;funcret
  4581  002506                     __end_of_HV_Read:
  4582                           	callstack 0
  4583                           
  4584 ;; *************** function _Drive_Read *****************
  4585 ;; Defined at:
  4586 ;;		line 169 in file "main.c"
  4587 ;; Parameters:    Size  Location     Type
  4588 ;;		None
  4589 ;; Auto vars:     Size  Location     Type
  4590 ;;		None
  4591 ;; Return value:  Size  Location     Type
  4592 ;;                  1    wreg      unsigned char 
  4593 ;; Registers used:
  4594 ;;		wreg
  4595 ;; Tracked objects:
  4596 ;;		On entry : 0/0
  4597 ;;		On exit  : 0/0
  4598 ;;		Unchanged: 0/0
  4599 ;; Data sizes:     COMRAM   BANK0   BANK1   BANK2   BANK3   BANK4   BANK5   BANK6   BANK7   BANK8   BANK9  BANK10  BANK1
      +1  BANK12  BANK13  BANK14  BANK15
  4600 ;;      Params:         0       0       0       0       0       0       0       0       0       0       0       0       
      +0       0       0       0       0
  4601 ;;      Locals:         0       0       0       0       0       0       0       0       0       0       0       0       
      +0       0       0       0       0
  4602 ;;      Temps:          0       0       0       0       0       0       0       0       0       0       0       0       
      +0       0       0       0       0
  4603 ;;      Totals:         0       0       0       0       0       0       0       0       0       0       0       0       
      +0       0       0       0       0
  4604 ;;Total ram usage:        0 bytes
  4605 ;; Hardware stack levels used: 1
  4606 ;; This function calls:
  4607 ;;		Nothing
  4608 ;; This function is called by:
  4609 ;;		_main
  4610 ;; This function uses a non-reentrant model
  4611 ;;
  4612                           
  4613                           	psect	text25
  4614  002506                     __ptext25:
  4615                           	callstack 0
  4616  002506                     _Drive_Read:
  4617                           	callstack 30
  4618  002506                     
  4619                           ;main.c: 171:     return PORTBbits.RB6;
  4620  002506  BCCB               	btfsc	203,6,c	;volatile
  4621  002508  EF88  F012         	goto	u991
  4622  00250C  EF8B  F012         	goto	u990
  4623  002510                     u991:
  4624  002510  0E01               	movlw	1
  4625  002512  EF8C  F012         	goto	u996
  4626  002516                     u990:
  4627  002516  0E00               	movlw	0
  4628  002518                     u996:
  4629  002518  0012               	return		;funcret
  4630  00251A                     __end_of_Drive_Read:
  4631                           	callstack 0
  4632                           
  4633                           	psect	rparam
  4634  0000                     
  4635                           	psect	idloc
  4636                           
  4637                           ;Config register IDLOC0 @ 0x200000
  4638                           ;	unspecified, using default values
  4639  200000                     	org	2097152
  4640  200000  0FFF               	dw	4095
  4641                           
  4642                           ;Config register IDLOC1 @ 0x200002
  4643                           ;	unspecified, using default values
  4644  200002                     	org	2097154
  4645  200002  0FFF               	dw	4095
  4646                           
  4647                           ;Config register IDLOC2 @ 0x200004
  4648                           ;	unspecified, using default values
  4649  200004                     	org	2097156
  4650  200004  0FFF               	dw	4095
  4651                           
  4652                           ;Config register IDLOC3 @ 0x200006
  4653                           ;	unspecified, using default values
  4654  200006                     	org	2097158
  4655  200006  0FFF               	dw	4095
  4656                           
  4657                           ;Config register IDLOC4 @ 0x200008
  4658                           ;	unspecified, using default values
  4659  200008                     	org	2097160
  4660  200008  0FFF               	dw	4095
  4661                           
  4662                           ;Config register IDLOC5 @ 0x20000A
  4663                           ;	unspecified, using default values
  4664  20000A                     	org	2097162
  4665  20000A  0FFF               	dw	4095
  4666                           
  4667                           ;Config register IDLOC6 @ 0x20000C
  4668                           ;	unspecified, using default values
  4669  20000C                     	org	2097164
  4670  20000C  0FFF               	dw	4095
  4671                           
  4672                           ;Config register IDLOC7 @ 0x20000E
  4673                           ;	unspecified, using default values
  4674  20000E                     	org	2097166
  4675  20000E  0FFF               	dw	4095
  4676                           
  4677                           	psect	config
  4678                           
  4679                           ;Config register CONFIG1L @ 0x300000
  4680                           ;	External Oscillator Selection
  4681                           ;	FEXTOSC = OFF, Oscillator not enabled
  4682                           ;	Reset Oscillator Selection
  4683                           ;	RSTOSC = EXTOSC, EXTOSC operating per FEXTOSC bits (device manufacturing default)
  4684  300000                     	org	3145728
  4685  300000  FC                 	db	252
  4686                           
  4687                           ;Config register CONFIG1H @ 0x300001
  4688                           ;	Clock out Enable bit
  4689                           ;	CLKOUTEN = OFF, CLKOUT function is disabled
  4690                           ;	PRLOCKED One-Way Set Enable bit
  4691                           ;	PR1WAY = ON, PRLOCK bit can be cleared and set only once
  4692                           ;	Clock Switch Enable bit
  4693                           ;	CSWEN = ON, Writing to NOSC and NDIV is allowed
  4694                           ;	Fail-Safe Clock Monitor Enable bit
  4695                           ;	FCMEN = ON, Fail-Safe Clock Monitor enabled
  4696  300001                     	org	3145729
  4697  300001  FF                 	db	255
  4698                           
  4699                           ;Config register CONFIG2L @ 0x300002
  4700                           ;	MCLR Enable bit
  4701                           ;	MCLRE = EXTMCLR, If LVP = 0, MCLR pin is MCLR; If LVP = 1, RE3 pin function is MCLR
  4702                           ;	Power-up timer selection bits
  4703                           ;	PWRTS = PWRT_OFF, PWRT is disabled
  4704                           ;	Multi-vector enable bit
  4705                           ;	MVECEN = OFF, Interrupt contoller does not use vector table to prioritze interrupts
  4706                           ;	IVTLOCK bit One-way set enable bit
  4707                           ;	IVT1WAY = ON, IVTLOCK bit can be cleared and set only once
  4708                           ;	Low Power BOR Enable bit
  4709                           ;	LPBOREN = OFF, ULPBOR disabled
  4710                           ;	Brown-out Reset Enable bits
  4711                           ;	BOREN = SBORDIS, Brown-out Reset enabled , SBOREN bit is ignored
  4712  300002                     	org	3145730
  4713  300002  F7                 	db	247
  4714                           
  4715                           ;Config register CONFIG2H @ 0x300003
  4716                           ;	Brown-out Reset Voltage Selection bits
  4717                           ;	BORV = VBOR_2P45, Brown-out Reset Voltage (VBOR) set to 2.45V
  4718                           ;	ZCD Disable bit
  4719                           ;	ZCD = OFF, ZCD disabled. ZCD can be enabled by setting the ZCDSEN bit of ZCDCON
  4720                           ;	PPSLOCK bit One-Way Set Enable bit
  4721                           ;	PPS1WAY = ON, PPSLOCK bit can be cleared and set only once; PPS registers remain locke
      +                          d after one clear/set cycle
  4722                           ;	Stack Full/Underflow Reset Enable bit
  4723                           ;	STVREN = ON, Stack full/underflow will cause Reset
  4724                           ;	Debugger Enable bit
  4725                           ;	DEBUG = OFF, Background debugger disabled
  4726                           ;	Extended Instruction Set Enable bit
  4727                           ;	XINST = OFF, Extended Instruction Set and Indexed Addressing Mode disabled
  4728  300003                     	org	3145731
  4729  300003  FF                 	db	255
  4730                           
  4731                           ;Config register CONFIG3L @ 0x300004
  4732                           ;	WDT Period selection bits
  4733                           ;	WDTCPS = WDTCPS_31, Divider ratio 1:65536; software control of WDTPS
  4734                           ;	WDT operating mode
  4735                           ;	WDTE = OFF, WDT Disabled; SWDTEN is ignored
  4736  300004                     	org	3145732
  4737  300004  9F                 	db	159
  4738                           
  4739                           ;Config register CONFIG3H @ 0x300005
  4740                           ;	WDT Window Select bits
  4741                           ;	WDTCWS = WDTCWS_7, window always open (100%); software control; keyed access not requi
      +                          red
  4742                           ;	WDT input clock selector
  4743                           ;	WDTCCS = SC, Software Control
  4744  300005                     	org	3145733
  4745  300005  FF                 	db	255
  4746                           
  4747                           ;Config register CONFIG4L @ 0x300006
  4748                           ;	Boot Block Size selection bits
  4749                           ;	BBSIZE = BBSIZE_512, Boot Block size is 512 words
  4750                           ;	Boot Block enable bit
  4751                           ;	BBEN = OFF, Boot block disabled
  4752                           ;	Storage Area Flash enable bit
  4753                           ;	SAFEN = OFF, SAF disabled
  4754                           ;	Application Block write protection bit
  4755                           ;	WRTAPP = OFF, Application Block not write protected
  4756  300006                     	org	3145734
  4757  300006  FF                 	db	255
  4758                           
  4759                           ;Config register CONFIG4H @ 0x300007
  4760                           ;	Configuration Register Write Protection bit
  4761                           ;	WRTB = OFF, Configuration registers (300000-30000Bh) not write-protected
  4762                           ;	Boot Block Write Protection bit
  4763                           ;	WRTC = OFF, Boot Block (000000-0007FFh) not write-protected
  4764                           ;	Data EEPROM Write Protection bit
  4765                           ;	WRTD = OFF, Data EEPROM not write-protected
  4766                           ;	SAF Write protection bit
  4767                           ;	WRTSAF = OFF, SAF not Write Protected
  4768                           ;	Low Voltage Programming Enable bit
  4769                           ;	LVP = ON, Low voltage programming enabled. MCLR/VPP pin function is MCLR. MCLRE config
      +                          uration bit is ignored
  4770  300007                     	org	3145735
  4771  300007  FF                 	db	255
  4772                           
  4773                           ;Config register CONFIG5L @ 0x300008
  4774                           ;	PFM and Data EEPROM Code Protection bit
  4775                           ;	CP = OFF, PFM and Data EEPROM code protection disabled
  4776  300008                     	org	3145736
  4777  300008  FF                 	db	255
  4778                           
  4779                           ;Config register CONFIG5H @ 0x300009
  4780                           ;	unspecified, using default values
  4781  300009                     	org	3145737
  4782  300009  FF                 	db	255
  4783                           tosu	equ	0x3FFF
  4784                           tosh	equ	0x3FFE
  4785                           tosl	equ	0x3FFD
  4786                           stkptr	equ	0x3FFC
  4787                           pclatu	equ	0x3FFB
  4788                           pclath	equ	0x3FFA
  4789                           pcl	equ	0x3FF9
  4790                           tblptru	equ	0x3FF8
  4791                           tblptrh	equ	0x3FF7
  4792                           tblptrl	equ	0x3FF6
  4793                           tablat	equ	0x3FF5
  4794                           prodh	equ	0x3FF4
  4795                           prodl	equ	0x3FF3
  4796                           indf0	equ	0x3FEF
  4797                           postinc0	equ	0x3FEE
  4798                           postdec0	equ	0x3FED
  4799                           preinc0	equ	0x3FEC
  4800                           plusw0	equ	0x3FEB
  4801                           fsr0h	equ	0x3FEA
  4802                           fsr0l	equ	0x3FE9
  4803                           wreg	equ	0x3FE8
  4804                           indf1	equ	0x3FE7
  4805                           postinc1	equ	0x3FE6
  4806                           postdec1	equ	0x3FE5
  4807                           preinc1	equ	0x3FE4
  4808                           plusw1	equ	0x3FE3
  4809                           fsr1h	equ	0x3FE2
  4810                           fsr1l	equ	0x3FE1
  4811                           bsr	equ	0x3FE0
  4812                           indf2	equ	0x3FDF
  4813                           postinc2	equ	0x3FDE
  4814                           postdec2	equ	0x3FDD
  4815                           preinc2	equ	0x3FDC
  4816                           plusw2	equ	0x3FDB
  4817                           fsr2h	equ	0x3FDA
  4818                           fsr2l	equ	0x3FD9
  4819                           status	equ	0x3FD8

Data Sizes:
    Strings     186
    Constant    32
    Data        486
    BSS         40
    Persistent  6
    Stack       0

Auto Spaces:
    Space          Size  Autos    Used
    COMRAM           95     71      95
    BANK0           160      0      28
    BANK1           256      0       0
    BANK2           256      0       0
    BANK3           256      0       0
    BANK4           256      0       0
    BANK5           256      0       0
    BANK6           256      0       0
    BANK7           256      0       0
    BANK8           256      0       0
    BANK9           256      0       0
    BANK10          256      0       0
    BANK11          256      0       0
    BANK12          256      0       0
    BANK13          256      0       0
    BANK14          256      0       0
    BANK15          256      0       0

Pointer List with Targets:

    strlen@s	PTR const unsigned char  size(2) Largest target is 21
		 -> STR_26(CODE[9]), STR_25(CODE[21]), STR_24(CODE[12]), STR_23(CODE[9]), 
		 -> STR_22(CODE[9]), STR_21(CODE[11]), STR_20(CODE[13]), STR_19(CODE[6]), 
		 -> STR_18(CODE[12]), STR_17(CODE[11]), STR_16(CODE[12]), STR_15(CODE[10]), 
		 -> STR_14(CODE[16]), STR_13(CODE[3]), STR_12(CODE[13]), STR_11(CODE[7]), 
		 -> STR_10(CODE[12]), STR_9(CODE[12]), STR_8(CODE[16]), STR_7(CODE[3]), 
		 -> STR_6(CODE[11]), STR_5(CODE[12]), STR_4(CODE[13]), STR_3(CODE[6]), 
		 -> STR_2(CODE[6]), 

    strlen@a	PTR const unsigned char  size(2) Largest target is 21
		 -> STR_26(CODE[9]), STR_25(CODE[21]), STR_24(CODE[12]), STR_23(CODE[9]), 
		 -> STR_22(CODE[9]), STR_21(CODE[11]), STR_20(CODE[13]), STR_19(CODE[6]), 
		 -> STR_18(CODE[12]), STR_17(CODE[11]), STR_16(CODE[12]), STR_15(CODE[10]), 
		 -> STR_14(CODE[16]), STR_13(CODE[3]), STR_12(CODE[13]), STR_11(CODE[7]), 
		 -> STR_10(CODE[12]), STR_9(CODE[12]), STR_8(CODE[16]), STR_7(CODE[3]), 
		 -> STR_6(CODE[11]), STR_5(CODE[12]), STR_4(CODE[13]), STR_3(CODE[6]), 
		 -> STR_2(CODE[6]), 

    UART1_SetErrorHandler@interruptHandler	PTR FTN()void  size(2) Largest target is 1
		 -> UART1_DefaultErrorHandler(), 

    UART1_SetOverrunErrorHandler@interruptHandler	PTR FTN()void  size(2) Largest target is 1
		 -> UART1_DefaultOverrunErrorHandler(), 

    UART1_SetFramingErrorHandler@interruptHandler	PTR FTN()void  size(2) Largest target is 1
		 -> UART1_DefaultFramingErrorHandler(), 

    UART1_ErrorHandler	PTR FTN()void  size(2) Largest target is 1
		 -> Absolute function(), UART1_DefaultErrorHandler(), 

    UART1_OverrunErrorHandler	PTR FTN()void  size(2) Largest target is 1
		 -> Absolute function(), UART1_DefaultOverrunErrorHandler(), 

    UART1_FramingErrorHandler	PTR FTN()void  size(2) Largest target is 1
		 -> Absolute function(), UART1_DefaultFramingErrorHandler(), 

    print@message	PTR unsigned char  size(2) Largest target is 21
		 -> STR_26(CODE[9]), STR_25(CODE[21]), STR_24(CODE[12]), STR_23(CODE[9]), 
		 -> STR_22(CODE[9]), STR_21(CODE[11]), STR_20(CODE[13]), STR_19(CODE[6]), 
		 -> STR_18(CODE[12]), STR_17(CODE[11]), STR_16(CODE[12]), STR_15(CODE[10]), 
		 -> STR_14(CODE[16]), STR_13(CODE[3]), STR_12(CODE[13]), STR_11(CODE[7]), 
		 -> STR_10(CODE[12]), STR_9(CODE[12]), STR_8(CODE[16]), STR_7(CODE[3]), 
		 -> STR_6(CODE[11]), STR_5(CODE[12]), STR_4(CODE[13]), STR_3(CODE[6]), 
		 -> STR_2(CODE[6]), 


Critical Paths under _main in COMRAM

    _main->___fltol
    _print->_strlen
    ___fltol->___flmul
    ___flmul->___xxtofl
    ___awdiv->___lldiv
    _UART1_Initialize->_UART1_SetErrorHandler
    _UART1_Initialize->_UART1_SetFramingErrorHandler
    _UART1_Initialize->_UART1_SetOverrunErrorHandler

Critical Paths under _main in BANK0

    None.

Critical Paths under _main in BANK1

    None.

Critical Paths under _main in BANK2

    None.

Critical Paths under _main in BANK3

    None.

Critical Paths under _main in BANK4

    None.

Critical Paths under _main in BANK5

    None.

Critical Paths under _main in BANK6

    None.

Critical Paths under _main in BANK7

    None.

Critical Paths under _main in BANK8

    None.

Critical Paths under _main in BANK9

    None.

Critical Paths under _main in BANK10

    None.

Critical Paths under _main in BANK11

    None.

Critical Paths under _main in BANK12

    None.

Critical Paths under _main in BANK13

    None.

Critical Paths under _main in BANK14

    None.

Critical Paths under _main in BANK15

    None.

Call Graph Tables:

 ---------------------------------------------------------------------------------
 (Depth) Function   	        Calls       Base Space   Used Autos Params    Refs
 ---------------------------------------------------------------------------------
 (0) _main                                                26    26      0    6722
                                             49 COMRAM    22    22      0
                         _Drive_Read
                            _HV_Read
                  _SYSTEM_Initialize
                            ___awdiv
                            ___flmul
                            ___fltol
                            ___lldiv
                           ___xxtofl
                     _getABSMotorRPM
                           _getAckRx
                _getCapacitorVoltage
            _getCurtisHeartBeatCheck
                  _getErrorTolerance
                       _getPedalHigh
                        _getPedalLow
                              _print
 ---------------------------------------------------------------------------------
 (1) _print                                                5     3      2    2178
                                              4 COMRAM     5     3      2
                        _UART1_Write
                             _strlen
 ---------------------------------------------------------------------------------
 (2) _strlen                                               4     2      2     166
                                              0 COMRAM     4     2      2
 ---------------------------------------------------------------------------------
 (2) _UART1_Write                                          1     1      0      22
                                              0 COMRAM     1     1      0
 ---------------------------------------------------------------------------------
 (1) _getPedalLow                                          0     0      0       0
 ---------------------------------------------------------------------------------
 (1) _getPedalHigh                                         0     0      0       0
 ---------------------------------------------------------------------------------
 (1) _getErrorTolerance                                    0     0      0       0
 ---------------------------------------------------------------------------------
 (1) _getCurtisHeartBeatCheck                              0     0      0       0
 ---------------------------------------------------------------------------------
 (1) _getCapacitorVoltage                                  0     0      0       0
 ---------------------------------------------------------------------------------
 (1) _getAckRx                                             0     0      0       0
 ---------------------------------------------------------------------------------
 (1) _getABSMotorRPM                                       0     0      0       0
 ---------------------------------------------------------------------------------
 (1) ___xxtofl                                            14    10      4     398
                                              0 COMRAM    14    10      4
 ---------------------------------------------------------------------------------
 (1) ___lldiv                                             13     5      8     618
                                              0 COMRAM    13     5      8
 ---------------------------------------------------------------------------------
 (1) ___fltol                                             10     6      4     305
                                             39 COMRAM    10     6      4
                            ___flmul (ARG)
                           ___xxtofl (ARG)
 ---------------------------------------------------------------------------------
 (1) ___flmul                                             25    17      8    1744
                                             14 COMRAM    25    17      8
                           ___xxtofl (ARG)
 ---------------------------------------------------------------------------------
 (1) ___awdiv                                              8     4      4     756
                                             13 COMRAM     8     4      4
                            ___lldiv (ARG)
 ---------------------------------------------------------------------------------
 (1) _SYSTEM_Initialize                                    0     0      0     294
              _OSCILLATOR_Initialize
             _PIN_MANAGER_Initialize
                     _PMD_Initialize
                   _UART1_Initialize
 ---------------------------------------------------------------------------------
 (2) _UART1_Initialize                                     0     0      0     294
              _UART1_SetErrorHandler
       _UART1_SetFramingErrorHandler
       _UART1_SetOverrunErrorHandler
 ---------------------------------------------------------------------------------
 (3) _UART1_SetOverrunErrorHandler                         2     0      2      98
                                              0 COMRAM     2     0      2
 ---------------------------------------------------------------------------------
 (3) _UART1_SetFramingErrorHandler                         2     0      2      98
                                              0 COMRAM     2     0      2
 ---------------------------------------------------------------------------------
 (3) _UART1_SetErrorHandler                                2     0      2      98
                                              0 COMRAM     2     0      2
 ---------------------------------------------------------------------------------
 (2) _PMD_Initialize                                       0     0      0       0
 ---------------------------------------------------------------------------------
 (2) _PIN_MANAGER_Initialize                               0     0      0       0
 ---------------------------------------------------------------------------------
 (2) _OSCILLATOR_Initialize                                0     0      0       0
 ---------------------------------------------------------------------------------
 (1) _HV_Read                                              0     0      0       0
 ---------------------------------------------------------------------------------
 (1) _Drive_Read                                           0     0      0       0
 ---------------------------------------------------------------------------------
 Estimated maximum stack depth 3
 ---------------------------------------------------------------------------------

 Call Graph Graphs:

 _main (ROOT)
   _Drive_Read
   _HV_Read
   _SYSTEM_Initialize
     _OSCILLATOR_Initialize
     _PIN_MANAGER_Initialize
     _PMD_Initialize
     _UART1_Initialize
       _UART1_SetErrorHandler
       _UART1_SetFramingErrorHandler
       _UART1_SetOverrunErrorHandler
   ___awdiv
     ___lldiv (ARG)
   ___flmul
     ___xxtofl (ARG)
   ___fltol
     ___flmul (ARG)
     ___xxtofl (ARG)
   ___lldiv
   ___xxtofl
   _getABSMotorRPM
   _getAckRx
   _getCapacitorVoltage
   _getCurtisHeartBeatCheck
   _getErrorTolerance
   _getPedalHigh
   _getPedalLow
   _print
     _UART1_Write
     _strlen

 Address spaces:
Name               Size   Autos  Total    Cost      Usage
BIGRAM             FFF      0     1E0      37       11.7%
EEDATA             400      0       0       0        0.0%
BITBANK15          100      0       0      35        0.0%
BANK15             100      0       0      36        0.0%
BITBANK14          100      0       0      33        0.0%
BANK14             100      0       0      34        0.0%
BITBANK13          100      0       0      31        0.0%
BANK13             100      0       0      32        0.0%
BITBANK12          100      0       0      29        0.0%
BANK12             100      0       0      30        0.0%
BITBANK11          100      0       0      27        0.0%
BANK11             100      0       0      28        0.0%
BITBANK10          100      0       0      25        0.0%
BANK10             100      0       0      26        0.0%
BITBANK9           100      0       0      23        0.0%
BANK9              100      0       0      24        0.0%
BITBANK8           100      0       0      21        0.0%
BANK8              100      0       0      22        0.0%
BITBANK7           100      0       0      19        0.0%
BANK7              100      0       0      20        0.0%
BITBANK6           100      0       0      17        0.0%
BANK6              100      0       0      18        0.0%
BITBANK5           100      0       0      15        0.0%
BANK5              100      0       0      16        0.0%
BITBANK4           100      0       0      13        0.0%
BANK4              100      0       0      14        0.0%
BITBANK3           100      0       0      11        0.0%
BANK3              100      0       0      12        0.0%
BITBANK2           100      0       0       9        0.0%
BANK2              100      0       0      10        0.0%
BITBANK1           100      0       0       7        0.0%
BANK1              100      0       0       8        0.0%
BITBANK0            A0      0       0       4        0.0%
BANK0               A0      0      1C       5       17.5%
BITCOMRAM           5F      0       0       0        0.0%
COMRAM              5F     47      5F       1      100.0%
BITSFR_9             0      0       0     200        0.0%
SFR_9                0      0       0     200        0.0%
BITSFR_8             0      0       0     200        0.0%
SFR_8                0      0       0     200        0.0%
BITSFR_7             0      0       0     200        0.0%
SFR_7                0      0       0     200        0.0%
BITSFR_6             0      0       0     200        0.0%
SFR_6                0      0       0     200        0.0%
BITSFR_5             0      0       0     200        0.0%
SFR_5                0      0       0     200        0.0%
BITSFR_4             0      0       0     200        0.0%
SFR_4                0      0       0     200        0.0%
BITSFR_3             0      0       0     200        0.0%
SFR_3                0      0       0     200        0.0%
BITSFR_2             0      0       0     200        0.0%
SFR_2                0      0       0     200        0.0%
BITSFR_1             0      0       0     200        0.0%
SFR_1                0      0       0     200        0.0%
BITSFR               0      0       0     200        0.0%
SFR                  0      0       0     200        0.0%
STACK                0      0       0       2        0.0%
NULL                 0      0       0       0        0.0%
ABS                  0      0      7B       6        0.0%
DATA                 0      0     25B       3        0.0%
CODE                 0      0       0       0        0.0%


Microchip Technology PIC18 Macro Assembler V2.32 build 20210201212658 
Symbol Table                                                                                   Thu Dec 02 19:29:12 2021

                                print@message 0005                                            l40 24F0  
                                          l43 24BE                                            l37 252A  
                                          l96 245A                             main@CapacitorVolt 003A  
                                ___awdiv@sign 0013                                           l114 255A  
                                         l124 256A                                           l134 2566  
                                         l150 2402                                           l119 255E  
                                         l144 2552                                           l153 2518  
                                         l129 2562                                           l402 22D8  
                                         l139 2556                                           l156 2504  
                                         l318 2340                                           l344 24C2  
                                         l362 2534                                           l347 24D8  
                                         l365 2548                                           l359 253E  
                                         l395 22C8                                           l665 2170  
                                         l599 2234                                           l982 194E  
                                         l991 1BE0                                           l992 1BCE  
                                         l986 1CD6                                           l989 1B68  
                                         l999 1C98                                           u960 24D2  
                                         u961 24CE                                           u970 248E  
                                         u971 248A                                           u980 23FC  
                                         u981 23F8                                           u990 2516  
                                         u991 2510                                           u996 2518  
                     __size_of_PMD_Initialize 0024                                           wreg 003FE8  
                                ___flmul@aexp 0020                                  ___flmul@bexp 0021  
                                ___flmul@sign 001B                                  ___flmul@temp 0026  
                                ___flmul@prod 0022                                   main@faulted 0038  
                                ___fltol@exp1 0031                                          l1030 1FA6  
                                        l1023 1F0E                                          l2001 2206  
                                        l1026 206A                                          l2011 222C  
                                        l2003 2208                                          l2005 220E  
                                        l2021 2096                                          l2101 205A  
                                        l1037 2002                                          l1045 249A  
                                        l2007 2214                                          l2031 20E4  
                                        l2023 20C0                                          l2015 206C  
                                        l2111 10F0                                          l2009 2224  
                                        l2041 2110                                          l2025 20C2  
                                        l2017 2082                                          l2201 13E6  
                                        l2121 1114                                          l2113 10F4  
                                        l2105 10DC                                          l2051 2140  
                                        l2027 20D2                                          l2203 13FA  
                                        l2131 115A                                          l2123 111C  
                                        l2115 10F4                                          l2107 10E0  
                                        l2053 2150                                          l2037 20FC  
                                        l2029 20D6                                          l2061 1ECA  
                                        l2301 17BA                                          l2221 14A4  
                                        l2205 1406                                          l2213 142A  
                                        l2141 1194                                          l2133 116A  
                                        l2125 1124                                          l2117 10F4  
                                        l2109 10EC                                          l2055 2160  
                                        l2047 2124                                          l2039 2106  
                                        l2071 1F48                                          l2063 1ED8  
                                        l2303 17CC                                          l2311 17FC  
                                        l2231 1544                                          l2223 14B0  
                                        l2207 1416                                          l2215 1436  
                                        l2151 11E2                                          l2143 11AC  
                                        l2135 1172                                          l2127 1140  
                                        l2119 1104                                          l2049 2130  
                                        l2081 1F9C                                          l2073 1F50  
                                        l2065 1F1E                                          l2313 180E  
                                        l2241 1588                                          l2233 1550  
                                        l2225 14BC                                          l2217 147A  
                                        l2209 1422                                          l2161 126C  
                                        l2153 11EE                                          l2145 11BC  
                                        l2137 1184                                          l2321 183C  
                                        l2129 1148                                          l2091 2012  
                                        l2083 1FD8                                          l2075 1F5C  
                                        l2067 1F34                                          l2059 1EBA  
                                        l2315 1816                                          l2307 17E4  
                                        l2251 160C                                          l2243 158E  
                                        l2235 1552                                          l2227 14DE  
                                        l2219 1492                                          l2171 12B4  
                                        l2163 1278                                          l2155 11FA  
                                        l2147 11C8                                          l2139 1188  
                                        l2093 2016                                          l2085 1FE4  
                                        l2077 1F8E                                          l2261 1640  
                                        l2253 1610                                          l2245 159C  
                                        l2237 155E                                          l2229 1538  
                                        l2181 12FA                                          l2173 12CC  
                                        l2165 128C                                          l2157 1254  
                                        l2149 11D0                                          l2095 203A  
                                        l2087 1FF2                                          l2079 1F90  
                                        l2319 182C                                          l2271 16B8  
                                        l2263 1644                                          l2255 1614  
                                        l2247 15B0                                          l2239 1578  
                                        l2191 1354                                          l2183 131E  
                                        l2175 12DC                                          l2167 1298  
                                        l2159 1260                                          l1721 2540  
                                        l2097 204A                                          l2089 2010  
                                        l1801 23A8                                          l2281 171A  
                                        l2273 16CE                                          l2265 1682  
                                        l2257 1628                                          l2249 15BA  
                                        l2193 13AE                                          l2185 132A  
                                        l2177 12E2                                          l2169 12AC  
                                        l1811 2506                                          l1731 2442  
                                        l1723 249C                                          l2099 2058  
                                        l1803 23B0                                          l2291 1770  
                                        l2283 172A                                          l2275 16F0  
                                        l2267 169E                                          l2259 162C  
                                        l2195 13BA                                          l2187 133C  
                                        l2179 12F2                                          l1741 244C  
                                        l1733 2444                                          l1725 2404  
                                        l1717 2536                                          l1901 1A24  
                                        l1821 2246                                          l1805 23D2  
                                        l2285 173E                                          l2277 16FC  
                                        l2269 16AC                                          l2197 13C6  
                                        l2189 1348                                          l1815 24F2  
                                        l1743 24DA                                          l1735 2446  
                                        l1727 2414                                          l1719 252C  
                                        l1751 2330                                          l1911 1A92  
                                        l1903 1A34                                          l1831 2288  
                                        l1823 225C                                          l1807 23D4  
                                        l2383 1850                                          l2295 1788  
                                        l2287 174A                                          l2279 170E  
                                        l2199 13D2                                          l1737 2448  
                                        l1729 2424                                          l1753 233C  
                                        l1745 22DA                                          l1921 1B30  
                                        l1913 1AA2                                          l1905 1A44  
                                        l1841 188A                                          l1833 22A6  
                                        l1825 2264                                          l1761 2468  
                                        l1809 23FC                                          l2297 179A  
                                        l2289 175C                                          l1739 244A  
                                        l1747 2318                                          l1771 2526  
                                        l1931 1B86                                          l1923 1B4E  
                                        l1915 1AC2                                          l1907 1A62  
                                        l1851 18C6                                          l1843 1896  
                                        l1835 22B6                                          l1827 2270  
                                        l1819 2236                                          l1755 24C2  
                                        l1763 246C                                          l2299 17AE  
                                        l1749 2324                                          l1941 1BF0  
                                        l1933 1B8A                                          l1925 1B58  
                                        l1917 1AEC                                          l1909 1A72  
                                        l1861 18F8                                          l1853 18D6  
                                        l1845 18A4                                          l1837 22B8  
                                        l1829 227E                                          l1781 2568  
                                        l1773 2558                                          l1757 24D2  
                                        l1765 248E                                          l1951 1C52  
                                        l1943 1BFC                                          l1935 1B98  
                                        l1927 1B66                                          l1919 1B22  
                                        l1871 1938                                          l1863 1906  
                                        l1855 18DC                                          l1847 18A6  
                                        l1839 22C2                                          l1759 245C  
                                        l1769 251A                                          l1961 1CBA  
                                        l1953 1C66                                          l1945 1C0A  
                                        l1937 1BC6                                          l1929 1B78  
                                        l1881 1982                                          l1873 193E  
                                        l1865 1908                                          l1857 18EC  
                                        l1849 18B6                                          l1785 2560  
                                        l1777 255C                                          l1793 2554  
                                        l1971 2172                                          l1963 1CBC  
                                        l1955 1C80                                          l1947 1C34  
                                        l1891 19DE                                          l1883 1992  
                                        l1875 195E                                          l1867 1918  
                                        l1859 18F2                                          l1981 219E  
                                        l1973 2176                                          l1957 1C9C  
                                        l1965 1CC2                                          l1949 1C38  
                                        l1893 19EA                                          l1885 199C  
                                        l1877 196E                                          l1869 1928  
                                        l1789 2564                                          l1797 2550  
                                        l1991 21CC                                          l1983 21A6  
                                        l1975 2184                                          l1967 1CC6  
                                        l1959 1CAC                                          l1895 19F6  
                                        l1887 19B6                                          l1993 21D4  
                                        l1985 21AA                                          l1977 218C  
                                        l1897 1A04                                          l1889 19C2  
                                        l1995 21E2                                          l1987 21B2  
                                        l1979 2190                                          l1899 1A14  
                                        l1997 21E8                                          l1989 21C4  
                                        l1999 21FE                                          STR_1 10D0  
                                        STR_2 10CA                                          STR_3 10C4  
                                        STR_4 1053                                          STR_5 1079  
                                        STR_6 1090                                          STR_7 10D8  
                                        STR_8 1036                                          STR_9 1079  
                                        u1000 2502                                          u1001 24FC  
                                        u1010 225C                                          u1011 2258  
                                        u1100 195E                                          u1020 227E  
                                        u1101 195A                                          u1021 227A  
                                        u1006 2504                                          u1110 196E  
                                        u1030 22A6                                          u1111 196A  
                                        u1031 22A2                                          u1200 1C52  
                                        u1120 1B0C                                          u1040 18A4  
                                        u1201 1C4E                                          u1041 18A0  
                                        u1210 1C80                                          u1130 1B66  
                                        u1050 18B6                                          u1211 1C7C  
                                        u1131 1B62                                          u1051 18B2  
                                        u1220 1CBA                                          u1140 1B86  
                                        u1060 18C6                                          u1300 20B6  
                                        u1221 1CB6                                          u1141 1B82  
                                        u1125 1B02                                          u1061 18C2  
                                        u1230 2184                                          u1150 1B98  
                                        u1070 1906                                          u1310 20E4  
                                        u1231 2180                                          u1151 1B94  
                                        u1071 1902                                          u1311 20E0  
                                        u1240 219E                                          u1160 1BC6  
                                        u1080 1918                                          u1320 20F8  
                                        u1400 1FD4                                          u1241 219A  
                                        u1161 1BC2                                          u1081 1914  
                                        u1321 20F4                                          u1305 20AC  
                                        u1401 1FD0                                          u1250 21C4  
                                        u1170 1BDC                                          u1090 1928  
                                        u1330 2120                                          u1410 1FF2  
                                        u1251 21C0                                          u1171 1BD8  
                                        u1091 1924                                          u1331 211C  
                                        u1411 1FEE                                          u1260 21E2  
                                        u1180 1BF0                                          u1340 2140  
                                        u1420 2002                                          u1500 11E2  
                                        u1261 21DE                                          u1181 1BEC  
                                        u1341 213C                                          u1421 1FFE  
                                        u1501 11DE                                          _LATA 003FBA  
                                        u1270 21FE                                          u1190 1C0A  
                                        u1350 2150                                          u1430 2010  
                                        u1510 128C                                          _LATB 003FBB  
                                        u1271 21FA                                          u1191 1C06  
                                        u1351 214C                                          u1431 200C  
                                        u1511 1288                                          _LATC 003FBC  
                                        u1280 2224                                          u1440 204A  
                                        u1360 1ECA                                          u1600 147A  
                                        u1520 12AC                                          u1281 2220  
                                        u1441 2046                                          u1361 1EC6  
                                        u1601 1476                                          u1521 12A8  
                                        u1290 2082                                          u1450 2058  
                                        u1370 1ED8                                          u1610 14A4  
                                        u1530 12F2                                          u1291 207E  
                                        u1451 2054                                          u1371 1ED4  
                                        u1611 14A0                                          u1531 12EE  
                                        u1380 1F34                                          u1700 172A  
                                        u1620 14DE                                          u1540 131E  
                                        u1460 1140                                          u1381 1F30  
                                        u1701 1726                                          u1621 14DA  
                                        u1541 131A                                          u1461 113C  
                                        u1390 1F8A                                          u1710 173E  
                                        u1630 1578                                          u1550 133C  
                                        u1470 115A                                          u1391 1F86  
                                        u1711 173A                                          u1631 1574  
                                        u1551 1338                                          u1471 1156  
                                        u1800 180E                                          u1720 175C  
                                        u1640 1628                                          u1560 13E6  
                                        u1480 116A                                          u1801 180A  
                                        u1721 1758                                          u1641 1624  
                                        u1561 13E2                                          u1481 1166  
                                        u1810 1828                                          u1730 1770  
                                        u1650 1640                                          u1570 13FA  
                                        u1490 1184                                          u1811 1824  
                                        u1731 176C                                          u1651 163C  
                                        u1571 13F6                                          u1491 1180  
                                        u1740 1784                                          u1660 165A  
                                        u1580 144E                                          u1741 1780  
                                        u1661 1654                                          u1581 1448  
                                        u1750 179A                                          u1670 1670  
                                        u1662 165C                                          u1590 1468  
                                        u1582 1450                                          u1751 1796  
                                        u1671 166A                                          u1591 1462  
                                        u1760 17AE                                          u1680 1682  
                                        u1672 1672                                          u1592 146A  
                                        u1761 17AA                                          u1681 167E  
                                        u1770 17CC                                          u1690 170E  
                                        u1771 17C8                                          u1691 170A  
                                        u1907 140C                                          u1780 17E0  
                                        u1781 17DC                                          u1917 16C2  
                                        u1790 17F8                                          u1791 17F4  
                                        u1927 16E4                                          _PMD0 0039C0  
                                        _PMD1 0039C1                                          _PMD2 0039C2  
                                        _PMD3 0039C3                                          _PMD4 0039C4  
                                        u1897 11B2                                          _PMD5 0039C5  
                                        _PMD6 0039C6                                          _PMD7 0039C7  
                                        _WPUA 003A41                                          _WPUB 003A51  
                                        _WPUC 003A61                                          _WPUE 003A81  
                             __end_of_HV_Read 2506                                          _main 10DC  
                                        fsr1h 003FE2                                          fsr1l 003FE1  
                                        fsr2l 003FD9                                          prodh 003FF4  
                                        prodl 003FF3                                          start FFFC  
                                ___param_bank 000000                __size_of_OSCILLATOR_Initialize 0018  
               __end_of_OSCILLATOR_Initialize 24F2                                 ___fltol@sign1 0030  
                                       ?_main 0001                               __end_of___awdiv 2236  
                                       STR_10 106D                                         STR_11 10B7  
                                       STR_20 1060                                         STR_12 1046  
                                       STR_13 10D5                                         STR_21 1085  
                                       STR_14 1036                                         STR_22 10A5  
                                       STR_23 10AE                                         STR_15 109B  
                                       STR_24 1079                                         STR_16 1079  
                                       STR_17 1090                                         STR_25 1021  
                                       STR_26 10AE                                         STR_18 1079  
                                       STR_19 10BE                               __end_of___flmul 1CD8  
                             __end_of___fltol 2172                               __end_of___lldiv 22DA  
                             ___awdiv@divisor 0010                                         _U1P1H 003DED  
                                       _U1P2H 003DEF                                         _U1P1L 003DEC  
                                       _U1P3H 003DF1                                         _U1P2L 003DEE  
                                       _U1P3L 003DF0                                         _U1UIR 003DF8  
                                       _U1RXB 003DE8                                         _U1TXB 003DEA  
                             ___awdiv@counter 0012                                         _OSCEN 0039DD  
                                       _TRISA 003FC2                                         _TRISB 003FC3  
                                       _TRISC 003FC4                       _CURTIS_HEART_BEAT_CHECK 005E  
                                       _print 23A8              __size_of_getCurtisHeartBeatCheck 0004  
                                       tablat 003FF5                                    _Drive_Read 2506  
                                       status 003FD8              _UART1_DefaultFramingErrorHandler 000000  
                             __initialization 2342                             _getErrorTolerance 2558  
                        __end_of_getPedalHigh 2558                                  __end_of_main 188A  
                          ?_getErrorTolerance 0001                                  ?_UART1_Write 0001  
                                      ??_main 0032                                 __activetblptr 000003  
                         ??_getErrorTolerance 0001                          __size_of_getPedalLow 0004  
                            _UART1_Initialize 22DA                                     ??_HV_Read 0001  
                                      _ACK_RX 005B                              ___awdiv@dividend 000E  
                                      ?_print 0005                                        _ANSELA 003A40  
                                      _ANSELB 003A50                                        _ANSELC 003A60  
                                      _U1CON0 003DF2                                        _U1CON1 003DF3  
                                      _U1CON2 003DF4                                        _U1BRGH 003DF6  
                                      _U1FIFO 003DF7                                        _U1BRGL 003DF5  
                                      _ODCONA 003A42                                        _ODCONB 003A52  
                                      _ODCONC 003A62                                        _RC6PPS 003A16  
                                      _INLVLA 003A44                                        _INLVLB 003A54  
                                      _INLVLC 003A64                                        _INLVLE 003A84  
                                      _OSCFRQ 0039DF                         _UART1_SetErrorHandler 2540  
                            __end_of___xxtofl 206C                              __end_of_getAckRx 2568  
                   __end_of_getErrorTolerance 255C                                     ??___awdiv 0012  
                                   ??___flmul 0017                                        _charge 0057  
                                   ??___fltol 002C                                     ??___lldiv 0009  
                                      clear_0 2390                                        clear_1 239C  
                            ___awdiv@quotient 0014                                        isa$std 000001  
                                      _strlen 245C                                  __pdataBIGRAM 0E20  
                              _PMD_Initialize 249C                              ??_getABSMotorRPM 0001  
                                __mediumconst 0000                                        tblptrh 003FF7  
                                      tblptrl 003FF6                                        tblptru 003FF8  
                                      print@i 0009                             main@ABS_Motor_RPM 0035  
                                 _DriveSwitch 0055          __end_of_UART1_SetOverrunErrorHandler 2536  
       __size_of_UART1_SetOverrunErrorHandler 000A                  _UART1_SetOverrunErrorHandler 252C  
                   _UART1_DefaultErrorHandler 000000                                _CAPACITOR_VOLT 005C  
                                ___xxtofl@arg 000B                                  ___xxtofl@exp 000A  
                                 ?_Drive_Read 0001                             _SYSTEM_Initialize 251A  
                                ___xxtofl@val 0001                                    __accesstop 0060  
                     __end_of__initialization 23A2                            ?_SYSTEM_Initialize 0001  
                          main@Throttle_Total 0040                                 ___rparam_used 000001  
                                  ___fltol@f1 0028                                __pcstackCOMRAM 0001  
                                __pidataBANK0 254A                           ??_SYSTEM_Initialize 0003  
                               __end_of_print 2404                        __end_of_PMD_Initialize 24C0  
                   _UART1_FramingErrorHandler 0074                     __end_of_SYSTEM_Initialize 252C  
                     _getCurtisHeartBeatCheck 255C                  __size_of_getCapacitorVoltage 0004  
                                     ??_print 0007                                    __pbssBANK0 0060  
               ?_UART1_SetOverrunErrorHandler 0001                        ?_UART1_SetErrorHandler 0001  
                          main@DriveTimeCount 003C                         __size_of_getPedalHigh 0004  
                  __size_of_getErrorTolerance 0004                               _ERROR_TOLERANCE 005F  
                             ?_PMD_Initialize 0001                           __size_of_Drive_Read 0014  
                                     ?_strlen 0001                                       _U1ERRIE 003DFA  
                                     _U1ERRIR 003DF9                                       _CURRENT 0064  
                        __size_of_UART1_Write 001A                                       _U1RXPPS 003AE7  
                                   ?___xxtofl 0001                                    _bms_status 004C  
                                   ?_getAckRx 0001                                       _OSCCON1 0039D9  
                                     _OSCCON3 0039DB                                       _OSCTUNE 0039DE  
                                     _SLRCONA 003A43                                       _SLRCONB 003A53  
                                     _SLRCONC 003A63                                       _SOC_LUT 0E20  
                                     _HV_Read 24F2                                  _getPedalHigh 2554  
                               _ABS_MOTOR_RPM 005D                                    _firstDrive 004E  
                                  _firstStart 0068                                       __Hparam 0000  
                                     __Lparam 0000                      __end_of_UART1_Initialize 2342  
                                     ___awdiv 2172                                       ___flmul 188A  
                                     ___fltol 206C                                       ___lldiv 2236  
                                __psmallconst 1000                                       __pcinit 2342  
                                     __ramtop 1000                                       __ptext0 10DC  
                                     __ptext1 23A8                                       __ptext2 245C  
                                     __ptext3 24C0                                       __ptext4 2550  
                                     __ptext5 2554                                       __ptext6 2558  
                                     __ptext7 255C                                       __ptext8 2560  
                                     __ptext9 2564                                       _firstHV 0050  
                                     _firstLV 0052                               __size_of_strlen 0040  
                                     _pedalOK 0060                         _OSCILLATOR_Initialize 24DA  
                                  ??___xxtofl 0005                     ??_getCurtisHeartBeatCheck 0001  
                    ??_PIN_MANAGER_Initialize 0001                                    ??_getAckRx 0001  
                                     main@ACK 003B                                     _PACK_TEMP 0058  
                  __size_of_SYSTEM_Initialize 0012                                       _voltage 0048  
                                   _ERROR_IDX 006C                          end_of_initialization 23A2  
              ??_UART1_SetOverrunErrorHandler 0003                               ___lldiv@divisor 0005  
                             ___lldiv@counter 000D                                       postdec1 003FE5  
                                     postdec2 003FDD                                       postinc0 003FEE  
                                     postinc2 003FDE                             UART1_Write@txData 0001  
                                     strlen@a 0003                                       strlen@s 0001  
                               ??_getPedalLow 0001                                     _PORTBbits 003FCB  
                               ___xxtofl@sign 0009                                  ??_Drive_Read 0001  
                                 ___flmul@grs 001C               __end_of_getCurtisHeartBeatCheck 2560  
                         _getCapacitorVoltage 2560                                 __pidataBIGRAM 1CD8  
                      ?_OSCILLATOR_Initialize 0001                            __end_of_Drive_Read 251A  
                         _THROTTLE_MULTIPLIER 0076                                __end_of_strlen 249C  
                         start_initialization 2342               __size_of_PIN_MANAGER_Initialize 0058  
                         __end_of_getPedalLow 2554                       ??_UART1_SetErrorHandler 0003  
                        ?_getCapacitorVoltage 0001                              ??_PMD_Initialize 0001  
                                 __pdataBANK0 0076                                      ??_strlen 0003  
                           main@Throttle_High 0036                                     ___flmul@a 0013  
                                   ___flmul@b 000F                                   __pbssCOMRAM 0048  
                          _UART1_ErrorHandler 0070                          __end_of_THROTTLE_MAP 1021  
                       ??_getCapacitorVoltage 0001                             __size_of___xxtofl 01B4  
                                    ?_HV_Read 0001                             __size_of_getAckRx 0004  
                                _curr_voltage 006A                       __size_of_getABSMotorRPM 0004  
                                   __pnvBANK0 0070                        _PIN_MANAGER_Initialize 2404  
                           ?_UART1_Initialize 0001          __end_of_UART1_SetFramingErrorHandler 2540  
       __size_of_UART1_SetFramingErrorHandler 000A                  _UART1_SetFramingErrorHandler 2536  
                                    ?___awdiv 000E                                      ?___flmul 000F  
                                    ?___fltol 0028                                      ?___lldiv 0001  
                          ??_UART1_Initialize 0003                              _uart1RxLastError 0054  
                               ??_UART1_Write 0001                                   _getPedalLow 2550  
                                 __smallconst 1000              _UART1_DefaultOverrunErrorHandler 000000  
                                 _U1ERRIRbits 003DF9                                __size_of_print 005C  
       UART1_SetErrorHandler@interruptHandler 0001                                      _PIR3bits 0039A3  
                               _THROTTLE_HIGH 005A                 ?_UART1_SetFramingErrorHandler 0001  
                                    _HVSwitch 0056                                     main@state 0042  
                         __end_of_UART1_Write 24DA                               main@error_state 0047  
                                   copy_data0 2356                                     copy_data1 237C  
                            __size_of_HV_Read 0014                                      __Hrparam 0000  
                                    __Lrparam 0000                       ??_OSCILLATOR_Initialize 0001  
                            __size_of___awdiv 00C4                              __size_of___flmul 044E  
                            __size_of___fltol 0106                              __size_of___lldiv 00A4  
                            main@Throttle_Low 0037                      ?_getCurtisHeartBeatCheck 0001  
                                    ___xxtofl 1EB8                                      _getAckRx 2564  
                                    __ptext10 2568                                      __ptext11 1EB8  
                                    __ptext20 2540                                      __ptext12 2236  
                                    __ptext21 249C                                      __ptext13 206C  
                                    __ptext22 2404                                      __ptext14 188A  
                                    __ptext23 24DA                                      __ptext15 2172  
                                    __ptext24 24F2                                      __ptext16 251A  
                                    __ptext25 2506                                      __ptext17 22DA  
                                    __ptext18 252C                                      __ptext19 2536  
                                  _U1CON0bits 003DF2                __size_of_UART1_SetErrorHandler 000A  
               __end_of_UART1_SetErrorHandler 254A                                _getABSMotorRPM 2568  
                               __size_of_main 07AE                      main@PrechargingTimeCount 0043  
                   _UART1_OverrunErrorHandler 0072  UART1_SetOverrunErrorHandler@interruptHandler 0001  
                                    isa$xinst 000000                                _previous_state 007A  
                                _THROTTLE_MAP 1001                                  _THROTTLE_LOW 0059  
                                 _UART1_Write 24C0                                    _ERROR_NODE 006E  
              ??_UART1_SetFramingErrorHandler 0003                                 ?_getPedalHigh 0001  
                      __end_of_getABSMotorRPM 256C                              ___lldiv@dividend 0001  
                     ?_PIN_MANAGER_Initialize 0001  UART1_SetFramingErrorHandler@interruptHandler 0001  
                                ?_getPedalLow 0001                   __end_of_getCapacitorVoltage 2564  
                            ___lldiv@quotient 0009                     __size_of_UART1_Initialize 0068  
                              ??_getPedalHigh 0001                               ?_getABSMotorRPM 0001  
              __end_of_PIN_MANAGER_Initialize 245C  
